

Microchip MPLAB XC8 Assembler V3.10 build 20250813170317 
                                                                                               Sun May 10 17:14:55 2026

Microchip MPLAB XC8 C Compiler v3.10 (Free license) build 20250813170317 Og1 
     1                           	processor	16F877A
     2                           	pagewidth 120
     3                           	opt	flic
     4                           	psect	idataCOMMON,global,class=CODE,space=0,delta=2,noexec
     5                           	psect	idataBANK0,global,class=CODE,space=0,delta=2,noexec
     6                           	psect	idataBANK1,global,class=CODE,space=0,delta=2,noexec
     7                           	psect	strings,global,class=STRING,space=0,delta=2,noexec
     8                           	psect	stringtext,global,reloc=256,class=STRCODE,space=0,delta=2,noexec
     9                           	psect	cinit,global,class=CODE,space=0,merge=1,delta=2
    10                           	psect	bssCOMMON,global,class=COMMON,space=1,delta=1,noexec
    11                           	psect	dataCOMMON,global,class=COMMON,space=1,delta=1,noexec
    12                           	psect	bssBANK0,global,class=BANK0,space=1,delta=1,noexec
    13                           	psect	dataBANK0,global,class=BANK0,space=1,delta=1,noexec
    14                           	psect	bssBANK1,global,class=BANK1,space=1,delta=1,noexec
    15                           	psect	dataBANK1,global,class=BANK1,space=1,delta=1,noexec
    16                           	psect	inittext,global,class=CODE,space=0,delta=2
    17                           	psect	clrtext,global,class=CODE,space=0,delta=2
    18                           	psect	cstackCOMMON,global,class=COMMON,space=1,delta=1,noexec
    19                           	psect	cstackBANK0,global,class=BANK0,space=1,delta=1,noexec
    20                           	psect	maintext,global,class=CODE,space=0,split=1,delta=2
    21                           	psect	text1,local,class=CODE,space=0,merge=1,delta=2
    22                           	psect	text2,local,class=CODE,space=0,merge=1,delta=2
    23                           	psect	text3,local,class=CODE,space=0,merge=1,delta=2,group=2
    24                           	psect	text4,local,class=CODE,space=0,merge=1,delta=2
    25                           	psect	text5,local,class=CODE,space=0,merge=1,delta=2
    26                           	psect	text6,local,class=CODE,space=0,merge=1,delta=2
    27                           	psect	text7,local,class=CODE,space=0,merge=1,delta=2
    28                           	psect	text8,local,class=CODE,space=0,merge=1,delta=2
    29                           	psect	text9,local,class=CODE,space=0,merge=1,delta=2
    30                           	psect	text10,local,class=CODE,space=0,merge=1,delta=2
    31                           	psect	text11,local,class=CODE,space=0,merge=1,delta=2,group=2
    32                           	psect	text12,local,class=CODE,space=0,merge=1,delta=2
    33                           	psect	text13,local,class=CODE,space=0,merge=1,delta=2
    34                           	psect	text14,local,class=CODE,space=0,merge=1,delta=2
    35                           	psect	text15,local,class=CODE,space=0,merge=1,delta=2
    36                           	psect	text16,local,class=CODE,space=0,merge=1,delta=2
    37                           	psect	text17,local,class=CODE,space=0,merge=1,delta=2,group=1
    38                           	psect	text18,local,class=CODE,space=0,merge=1,delta=2
    39                           	psect	text19,local,class=CODE,space=0,merge=1,delta=2
    40                           	psect	text20,local,class=CODE,space=0,merge=1,delta=2
    41                           	psect	text21,local,class=CODE,space=0,merge=1,delta=2
    42                           	psect	text22,local,class=CODE,space=0,merge=1,delta=2
    43                           	psect	text23,local,class=CODE,space=0,merge=1,delta=2
    44                           	psect	text24,local,class=CODE,space=0,merge=1,delta=2
    45                           	psect	text25,local,class=CODE,space=0,merge=1,delta=2
    46                           	psect	text26,local,class=CODE,space=0,merge=1,delta=2
    47                           	psect	text27,local,class=CODE,space=0,merge=1,delta=2
    48                           	psect	text28,local,class=CODE,space=0,merge=1,delta=2,group=1
    49                           	psect	text29,local,class=CODE,space=0,merge=1,delta=2
    50                           	psect	text30,local,class=CODE,space=0,merge=1,delta=2
    51                           	psect	text31,local,class=CODE,space=0,merge=1,delta=2
    52                           	psect	text32,local,class=CODE,space=0,merge=1,delta=2
    53                           	psect	text33,local,class=CODE,space=0,merge=1,delta=2
    54                           	psect	text34,local,class=CODE,space=0,merge=1,delta=2
    55                           	psect	text35,local,class=CODE,space=0,merge=1,delta=2
    56                           	psect	text36,local,class=CODE,space=0,merge=1,delta=2
    57                           	psect	text37,local,class=CODE,space=0,merge=1,delta=2,group=1
    58                           	psect	text38,local,class=CODE,space=0,merge=1,delta=2,group=1
    59                           	psect	text39,local,class=CODE,space=0,merge=1,delta=2
    60                           	psect	text40,local,class=CODE,space=0,merge=1,delta=2
    61                           	psect	text41,local,class=CODE,space=0,merge=1,delta=2,group=2
    62                           	psect	text42,local,class=CODE,space=0,merge=1,delta=2
    63                           	psect	text43,local,class=CODE,space=0,merge=1,delta=2
    64                           	psect	text44,local,class=CODE,space=0,merge=1,delta=2
    65                           	psect	text45,local,class=CODE,space=0,merge=1,delta=2
    66                           	psect	text46,local,class=CODE,space=0,merge=1,delta=2
    67                           	psect	text47,local,class=CODE,space=0,merge=1,delta=2
    68                           	psect	text48,local,class=CODE,space=0,merge=1,delta=2
    69                           	psect	text49,local,class=CODE,space=0,merge=1,delta=2
    70                           	psect	text50,local,class=CODE,space=0,merge=1,delta=2
    71                           	psect	text51,local,class=CODE,space=0,merge=1,delta=2
    72                           	psect	text52,local,class=CODE,space=0,merge=1,delta=2,group=1
    73                           	psect	text53,local,class=CODE,space=0,merge=1,delta=2
    74                           	psect	intentry,global,class=CODE,space=0,delta=2
    75                           	psect	config,global,abs,ovrld,class=CONFIG,space=4,delta=2,noexec
    76                           	dabs	1,0x7E,2
    77     0000                     
    78                           ; Version 2.20
    79                           ; Generated 12/02/2020 GMT
    80                           ; 
    81                           ; Copyright © 2020, Microchip Technology Inc. and its subsidiaries ("Microchip")
    82                           ; All rights reserved.
    83                           ; 
    84                           ; This software is developed by Microchip Technology Inc. and its subsidiaries ("Microch
      +                          ip").
    85                           ; 
    86                           ; Redistribution and use in source and binary forms, with or without modification, are
    87                           ; permitted provided that the following conditions are met:
    88                           ; 
    89                           ;     1. Redistributions of source code must retain the above copyright notice, this lis
      +                          t of
    90                           ;        conditions and the following disclaimer.
    91                           ; 
    92                           ;     2. Redistributions in binary form must reproduce the above copyright notice, this 
      +                          list
    93                           ;        of conditions and the following disclaimer in the documentation and/or other
    94                           ;        materials provided with the distribution.
    95                           ; 
    96                           ;     3. Microchip's name may not be used to endorse or promote products derived from th
      +                          is
    97                           ;        software without specific prior written permission.
    98                           ; 
    99                           ; THIS SOFTWARE IS PROVIDED BY MICROCHIP "AS IS" AND ANY EXPRESS OR IMPLIED WARRANTIES,
   100                           ; INCLUDING, BUT NOT LIMITED TO, THE IMPLIED WARRANTIES OF MERCHANTABILITY AND FITNESS F
      +                          OR
   101                           ; PURPOSE ARE DISCLAIMED.  IN NO EVENT SHALL MICROCHIP BE LIABLE FOR ANY DIRECT, INDIREC
      +                          T,
   102                           ; INCIDENTAL, SPECIAL, EXEMPLARY, OR CONSEQUENTIAL DAMAGES (INCLUDING BUT NOT LIMITED TO
   103                           ; PROCUREMENT OF SUBSTITUTE GOODS OR SERVICES; LOSS OF USE, DATA OR PROFITS; OR BUSINESS
   104                           ; INTERRUPTION) HOWSOEVER CAUSED AND ON ANY THEORY OF LIABILITY, WHETHER IN CONTRACT, ST
      +                          RICT
   105                           ; LIABILITY, OR TORT (INCLUDING NEGLIGENCE OR OTHERWISE) ARISING IN ANY WAY OUT OF THE U
      +                          SE OF
   106                           ; THIS SOFTWARE, EVEN IF ADVISED OF THE POSSIBILITY OF SUCH DAMAGE.
   107                           ; 
   108                           ; 
   109                           ; Code-generator required, PIC16F877A Definitions
   110                           ; 
   111                           ; SFR Addresses
   112     0004                     fsr             equ	4
   113     0004                     fsr0            equ	4
   114     0000                     indf            equ	0
   115     0000                     indf0           equ	0
   116     0002                     pc              equ	2
   117     0002                     pcl             equ	2
   118     000A                     pclath          equ	10
   119     0003                     status          equ	3
   120     0000                     INDF            equ	0	;# 
   121     0001                     TMR0            equ	1	;# 
   122     0002                     PCL             equ	2	;# 
   123     0003                     STATUS          equ	3	;# 
   124     0004                     FSR             equ	4	;# 
   125     0005                     PORTA           equ	5	;# 
   126     0006                     PORTB           equ	6	;# 
   127     0007                     PORTC           equ	7	;# 
   128     0008                     PORTD           equ	8	;# 
   129     0009                     PORTE           equ	9	;# 
   130     000A                     PCLATH          equ	10	;# 
   131     000B                     INTCON          equ	11	;# 
   132     000C                     PIR1            equ	12	;# 
   133     000D                     PIR2            equ	13	;# 
   134     000E                     TMR1            equ	14	;# 
   135     000E                     TMR1L           equ	14	;# 
   136     000F                     TMR1H           equ	15	;# 
   137     0010                     T1CON           equ	16	;# 
   138     0011                     TMR2            equ	17	;# 
   139     0012                     T2CON           equ	18	;# 
   140     0013                     SSPBUF          equ	19	;# 
   141     0014                     SSPCON          equ	20	;# 
   142     0015                     CCPR1           equ	21	;# 
   143     0015                     CCPR1L          equ	21	;# 
   144     0016                     CCPR1H          equ	22	;# 
   145     0017                     CCP1CON         equ	23	;# 
   146     0018                     RCSTA           equ	24	;# 
   147     0019                     TXREG           equ	25	;# 
   148     001A                     RCREG           equ	26	;# 
   149     001B                     CCPR2           equ	27	;# 
   150     001B                     CCPR2L          equ	27	;# 
   151     001C                     CCPR2H          equ	28	;# 
   152     001D                     CCP2CON         equ	29	;# 
   153     001E                     ADRESH          equ	30	;# 
   154     001F                     ADCON0          equ	31	;# 
   155     0081                     OPTION_REG      equ	129	;# 
   156     0085                     TRISA           equ	133	;# 
   157     0086                     TRISB           equ	134	;# 
   158     0087                     TRISC           equ	135	;# 
   159     0088                     TRISD           equ	136	;# 
   160     0089                     TRISE           equ	137	;# 
   161     008C                     PIE1            equ	140	;# 
   162     008D                     PIE2            equ	141	;# 
   163     008E                     PCON            equ	142	;# 
   164     0091                     SSPCON2         equ	145	;# 
   165     0092                     PR2             equ	146	;# 
   166     0093                     SSPADD          equ	147	;# 
   167     0094                     SSPSTAT         equ	148	;# 
   168     0098                     TXSTA           equ	152	;# 
   169     0099                     SPBRG           equ	153	;# 
   170     009C                     CMCON           equ	156	;# 
   171     009D                     CVRCON          equ	157	;# 
   172     009E                     ADRESL          equ	158	;# 
   173     009F                     ADCON1          equ	159	;# 
   174     010C                     EEDATA          equ	268	;# 
   175     010D                     EEADR           equ	269	;# 
   176     010E                     EEDATH          equ	270	;# 
   177     010F                     EEADRH          equ	271	;# 
   178     018C                     EECON1          equ	396	;# 
   179     018D                     EECON2          equ	397	;# 
   180     0000                     INDF            equ	0	;# 
   181     0001                     TMR0            equ	1	;# 
   182     0002                     PCL             equ	2	;# 
   183     0003                     STATUS          equ	3	;# 
   184     0004                     FSR             equ	4	;# 
   185     0005                     PORTA           equ	5	;# 
   186     0006                     PORTB           equ	6	;# 
   187     0007                     PORTC           equ	7	;# 
   188     0008                     PORTD           equ	8	;# 
   189     0009                     PORTE           equ	9	;# 
   190     000A                     PCLATH          equ	10	;# 
   191     000B                     INTCON          equ	11	;# 
   192     000C                     PIR1            equ	12	;# 
   193     000D                     PIR2            equ	13	;# 
   194     000E                     TMR1            equ	14	;# 
   195     000E                     TMR1L           equ	14	;# 
   196     000F                     TMR1H           equ	15	;# 
   197     0010                     T1CON           equ	16	;# 
   198     0011                     TMR2            equ	17	;# 
   199     0012                     T2CON           equ	18	;# 
   200     0013                     SSPBUF          equ	19	;# 
   201     0014                     SSPCON          equ	20	;# 
   202     0015                     CCPR1           equ	21	;# 
   203     0015                     CCPR1L          equ	21	;# 
   204     0016                     CCPR1H          equ	22	;# 
   205     0017                     CCP1CON         equ	23	;# 
   206     0018                     RCSTA           equ	24	;# 
   207     0019                     TXREG           equ	25	;# 
   208     001A                     RCREG           equ	26	;# 
   209     001B                     CCPR2           equ	27	;# 
   210     001B                     CCPR2L          equ	27	;# 
   211     001C                     CCPR2H          equ	28	;# 
   212     001D                     CCP2CON         equ	29	;# 
   213     001E                     ADRESH          equ	30	;# 
   214     001F                     ADCON0          equ	31	;# 
   215     0081                     OPTION_REG      equ	129	;# 
   216     0085                     TRISA           equ	133	;# 
   217     0086                     TRISB           equ	134	;# 
   218     0087                     TRISC           equ	135	;# 
   219     0088                     TRISD           equ	136	;# 
   220     0089                     TRISE           equ	137	;# 
   221     008C                     PIE1            equ	140	;# 
   222     008D                     PIE2            equ	141	;# 
   223     008E                     PCON            equ	142	;# 
   224     0091                     SSPCON2         equ	145	;# 
   225     0092                     PR2             equ	146	;# 
   226     0093                     SSPADD          equ	147	;# 
   227     0094                     SSPSTAT         equ	148	;# 
   228     0098                     TXSTA           equ	152	;# 
   229     0099                     SPBRG           equ	153	;# 
   230     009C                     CMCON           equ	156	;# 
   231     009D                     CVRCON          equ	157	;# 
   232     009E                     ADRESL          equ	158	;# 
   233     009F                     ADCON1          equ	159	;# 
   234     010C                     EEDATA          equ	268	;# 
   235     010D                     EEADR           equ	269	;# 
   236     010E                     EEDATH          equ	270	;# 
   237     010F                     EEADRH          equ	271	;# 
   238     018C                     EECON1          equ	396	;# 
   239     018D                     EECON2          equ	397	;# 
   240     0000                     INDF            equ	0	;# 
   241     0001                     TMR0            equ	1	;# 
   242     0002                     PCL             equ	2	;# 
   243     0003                     STATUS          equ	3	;# 
   244     0004                     FSR             equ	4	;# 
   245     0005                     PORTA           equ	5	;# 
   246     0006                     PORTB           equ	6	;# 
   247     0007                     PORTC           equ	7	;# 
   248     0008                     PORTD           equ	8	;# 
   249     0009                     PORTE           equ	9	;# 
   250     000A                     PCLATH          equ	10	;# 
   251     000B                     INTCON          equ	11	;# 
   252     000C                     PIR1            equ	12	;# 
   253     000D                     PIR2            equ	13	;# 
   254     000E                     TMR1            equ	14	;# 
   255     000E                     TMR1L           equ	14	;# 
   256     000F                     TMR1H           equ	15	;# 
   257     0010                     T1CON           equ	16	;# 
   258     0011                     TMR2            equ	17	;# 
   259     0012                     T2CON           equ	18	;# 
   260     0013                     SSPBUF          equ	19	;# 
   261     0014                     SSPCON          equ	20	;# 
   262     0015                     CCPR1           equ	21	;# 
   263     0015                     CCPR1L          equ	21	;# 
   264     0016                     CCPR1H          equ	22	;# 
   265     0017                     CCP1CON         equ	23	;# 
   266     0018                     RCSTA           equ	24	;# 
   267     0019                     TXREG           equ	25	;# 
   268     001A                     RCREG           equ	26	;# 
   269     001B                     CCPR2           equ	27	;# 
   270     001B                     CCPR2L          equ	27	;# 
   271     001C                     CCPR2H          equ	28	;# 
   272     001D                     CCP2CON         equ	29	;# 
   273     001E                     ADRESH          equ	30	;# 
   274     001F                     ADCON0          equ	31	;# 
   275     0081                     OPTION_REG      equ	129	;# 
   276     0085                     TRISA           equ	133	;# 
   277     0086                     TRISB           equ	134	;# 
   278     0087                     TRISC           equ	135	;# 
   279     0088                     TRISD           equ	136	;# 
   280     0089                     TRISE           equ	137	;# 
   281     008C                     PIE1            equ	140	;# 
   282     008D                     PIE2            equ	141	;# 
   283     008E                     PCON            equ	142	;# 
   284     0091                     SSPCON2         equ	145	;# 
   285     0092                     PR2             equ	146	;# 
   286     0093                     SSPADD          equ	147	;# 
   287     0094                     SSPSTAT         equ	148	;# 
   288     0098                     TXSTA           equ	152	;# 
   289     0099                     SPBRG           equ	153	;# 
   290     009C                     CMCON           equ	156	;# 
   291     009D                     CVRCON          equ	157	;# 
   292     009E                     ADRESL          equ	158	;# 
   293     009F                     ADCON1          equ	159	;# 
   294     010C                     EEDATA          equ	268	;# 
   295     010D                     EEADR           equ	269	;# 
   296     010E                     EEDATH          equ	270	;# 
   297     010F                     EEADRH          equ	271	;# 
   298     018C                     EECON1          equ	396	;# 
   299     018D                     EECON2          equ	397	;# 
   300     0000                     INDF            equ	0	;# 
   301     0001                     TMR0            equ	1	;# 
   302     0002                     PCL             equ	2	;# 
   303     0003                     STATUS          equ	3	;# 
   304     0004                     FSR             equ	4	;# 
   305     0005                     PORTA           equ	5	;# 
   306     0006                     PORTB           equ	6	;# 
   307     0007                     PORTC           equ	7	;# 
   308     0008                     PORTD           equ	8	;# 
   309     0009                     PORTE           equ	9	;# 
   310     000A                     PCLATH          equ	10	;# 
   311     000B                     INTCON          equ	11	;# 
   312     000C                     PIR1            equ	12	;# 
   313     000D                     PIR2            equ	13	;# 
   314     000E                     TMR1            equ	14	;# 
   315     000E                     TMR1L           equ	14	;# 
   316     000F                     TMR1H           equ	15	;# 
   317     0010                     T1CON           equ	16	;# 
   318     0011                     TMR2            equ	17	;# 
   319     0012                     T2CON           equ	18	;# 
   320     0013                     SSPBUF          equ	19	;# 
   321     0014                     SSPCON          equ	20	;# 
   322     0015                     CCPR1           equ	21	;# 
   323     0015                     CCPR1L          equ	21	;# 
   324     0016                     CCPR1H          equ	22	;# 
   325     0017                     CCP1CON         equ	23	;# 
   326     0018                     RCSTA           equ	24	;# 
   327     0019                     TXREG           equ	25	;# 
   328     001A                     RCREG           equ	26	;# 
   329     001B                     CCPR2           equ	27	;# 
   330     001B                     CCPR2L          equ	27	;# 
   331     001C                     CCPR2H          equ	28	;# 
   332     001D                     CCP2CON         equ	29	;# 
   333     001E                     ADRESH          equ	30	;# 
   334     001F                     ADCON0          equ	31	;# 
   335     0081                     OPTION_REG      equ	129	;# 
   336     0085                     TRISA           equ	133	;# 
   337     0086                     TRISB           equ	134	;# 
   338     0087                     TRISC           equ	135	;# 
   339     0088                     TRISD           equ	136	;# 
   340     0089                     TRISE           equ	137	;# 
   341     008C                     PIE1            equ	140	;# 
   342     008D                     PIE2            equ	141	;# 
   343     008E                     PCON            equ	142	;# 
   344     0091                     SSPCON2         equ	145	;# 
   345     0092                     PR2             equ	146	;# 
   346     0093                     SSPADD          equ	147	;# 
   347     0094                     SSPSTAT         equ	148	;# 
   348     0098                     TXSTA           equ	152	;# 
   349     0099                     SPBRG           equ	153	;# 
   350     009C                     CMCON           equ	156	;# 
   351     009D                     CVRCON          equ	157	;# 
   352     009E                     ADRESL          equ	158	;# 
   353     009F                     ADCON1          equ	159	;# 
   354     010C                     EEDATA          equ	268	;# 
   355     010D                     EEADR           equ	269	;# 
   356     010E                     EEDATH          equ	270	;# 
   357     010F                     EEADRH          equ	271	;# 
   358     018C                     EECON1          equ	396	;# 
   359     018D                     EECON2          equ	397	;# 
   360     0000                     INDF            equ	0	;# 
   361     0001                     TMR0            equ	1	;# 
   362     0002                     PCL             equ	2	;# 
   363     0003                     STATUS          equ	3	;# 
   364     0004                     FSR             equ	4	;# 
   365     0005                     PORTA           equ	5	;# 
   366     0006                     PORTB           equ	6	;# 
   367     0007                     PORTC           equ	7	;# 
   368     0008                     PORTD           equ	8	;# 
   369     0009                     PORTE           equ	9	;# 
   370     000A                     PCLATH          equ	10	;# 
   371     000B                     INTCON          equ	11	;# 
   372     000C                     PIR1            equ	12	;# 
   373     000D                     PIR2            equ	13	;# 
   374     000E                     TMR1            equ	14	;# 
   375     000E                     TMR1L           equ	14	;# 
   376     000F                     TMR1H           equ	15	;# 
   377     0010                     T1CON           equ	16	;# 
   378     0011                     TMR2            equ	17	;# 
   379     0012                     T2CON           equ	18	;# 
   380     0013                     SSPBUF          equ	19	;# 
   381     0014                     SSPCON          equ	20	;# 
   382     0015                     CCPR1           equ	21	;# 
   383     0015                     CCPR1L          equ	21	;# 
   384     0016                     CCPR1H          equ	22	;# 
   385     0017                     CCP1CON         equ	23	;# 
   386     0018                     RCSTA           equ	24	;# 
   387     0019                     TXREG           equ	25	;# 
   388     001A                     RCREG           equ	26	;# 
   389     001B                     CCPR2           equ	27	;# 
   390     001B                     CCPR2L          equ	27	;# 
   391     001C                     CCPR2H          equ	28	;# 
   392     001D                     CCP2CON         equ	29	;# 
   393     001E                     ADRESH          equ	30	;# 
   394     001F                     ADCON0          equ	31	;# 
   395     0081                     OPTION_REG      equ	129	;# 
   396     0085                     TRISA           equ	133	;# 
   397     0086                     TRISB           equ	134	;# 
   398     0087                     TRISC           equ	135	;# 
   399     0088                     TRISD           equ	136	;# 
   400     0089                     TRISE           equ	137	;# 
   401     008C                     PIE1            equ	140	;# 
   402     008D                     PIE2            equ	141	;# 
   403     008E                     PCON            equ	142	;# 
   404     0091                     SSPCON2         equ	145	;# 
   405     0092                     PR2             equ	146	;# 
   406     0093                     SSPADD          equ	147	;# 
   407     0094                     SSPSTAT         equ	148	;# 
   408     0098                     TXSTA           equ	152	;# 
   409     0099                     SPBRG           equ	153	;# 
   410     009C                     CMCON           equ	156	;# 
   411     009D                     CVRCON          equ	157	;# 
   412     009E                     ADRESL          equ	158	;# 
   413     009F                     ADCON1          equ	159	;# 
   414     010C                     EEDATA          equ	268	;# 
   415     010D                     EEADR           equ	269	;# 
   416     010E                     EEDATH          equ	270	;# 
   417     010F                     EEADRH          equ	271	;# 
   418     018C                     EECON1          equ	396	;# 
   419     018D                     EECON2          equ	397	;# 
   420     0000                     INDF            equ	0	;# 
   421     0001                     TMR0            equ	1	;# 
   422     0002                     PCL             equ	2	;# 
   423     0003                     STATUS          equ	3	;# 
   424     0004                     FSR             equ	4	;# 
   425     0005                     PORTA           equ	5	;# 
   426     0006                     PORTB           equ	6	;# 
   427     0007                     PORTC           equ	7	;# 
   428     0008                     PORTD           equ	8	;# 
   429     0009                     PORTE           equ	9	;# 
   430     000A                     PCLATH          equ	10	;# 
   431     000B                     INTCON          equ	11	;# 
   432     000C                     PIR1            equ	12	;# 
   433     000D                     PIR2            equ	13	;# 
   434     000E                     TMR1            equ	14	;# 
   435     000E                     TMR1L           equ	14	;# 
   436     000F                     TMR1H           equ	15	;# 
   437     0010                     T1CON           equ	16	;# 
   438     0011                     TMR2            equ	17	;# 
   439     0012                     T2CON           equ	18	;# 
   440     0013                     SSPBUF          equ	19	;# 
   441     0014                     SSPCON          equ	20	;# 
   442     0015                     CCPR1           equ	21	;# 
   443     0015                     CCPR1L          equ	21	;# 
   444     0016                     CCPR1H          equ	22	;# 
   445     0017                     CCP1CON         equ	23	;# 
   446     0018                     RCSTA           equ	24	;# 
   447     0019                     TXREG           equ	25	;# 
   448     001A                     RCREG           equ	26	;# 
   449     001B                     CCPR2           equ	27	;# 
   450     001B                     CCPR2L          equ	27	;# 
   451     001C                     CCPR2H          equ	28	;# 
   452     001D                     CCP2CON         equ	29	;# 
   453     001E                     ADRESH          equ	30	;# 
   454     001F                     ADCON0          equ	31	;# 
   455     0081                     OPTION_REG      equ	129	;# 
   456     0085                     TRISA           equ	133	;# 
   457     0086                     TRISB           equ	134	;# 
   458     0087                     TRISC           equ	135	;# 
   459     0088                     TRISD           equ	136	;# 
   460     0089                     TRISE           equ	137	;# 
   461     008C                     PIE1            equ	140	;# 
   462     008D                     PIE2            equ	141	;# 
   463     008E                     PCON            equ	142	;# 
   464     0091                     SSPCON2         equ	145	;# 
   465     0092                     PR2             equ	146	;# 
   466     0093                     SSPADD          equ	147	;# 
   467     0094                     SSPSTAT         equ	148	;# 
   468     0098                     TXSTA           equ	152	;# 
   469     0099                     SPBRG           equ	153	;# 
   470     009C                     CMCON           equ	156	;# 
   471     009D                     CVRCON          equ	157	;# 
   472     009E                     ADRESL          equ	158	;# 
   473     009F                     ADCON1          equ	159	;# 
   474     010C                     EEDATA          equ	268	;# 
   475     010D                     EEADR           equ	269	;# 
   476     010E                     EEDATH          equ	270	;# 
   477     010F                     EEADRH          equ	271	;# 
   478     018C                     EECON1          equ	396	;# 
   479     018D                     EECON2          equ	397	;# 
   480     0000                     INDF            equ	0	;# 
   481     0001                     TMR0            equ	1	;# 
   482     0002                     PCL             equ	2	;# 
   483     0003                     STATUS          equ	3	;# 
   484     0004                     FSR             equ	4	;# 
   485     0005                     PORTA           equ	5	;# 
   486     0006                     PORTB           equ	6	;# 
   487     0007                     PORTC           equ	7	;# 
   488     0008                     PORTD           equ	8	;# 
   489     0009                     PORTE           equ	9	;# 
   490     000A                     PCLATH          equ	10	;# 
   491     000B                     INTCON          equ	11	;# 
   492     000C                     PIR1            equ	12	;# 
   493     000D                     PIR2            equ	13	;# 
   494     000E                     TMR1            equ	14	;# 
   495     000E                     TMR1L           equ	14	;# 
   496     000F                     TMR1H           equ	15	;# 
   497     0010                     T1CON           equ	16	;# 
   498     0011                     TMR2            equ	17	;# 
   499     0012                     T2CON           equ	18	;# 
   500     0013                     SSPBUF          equ	19	;# 
   501     0014                     SSPCON          equ	20	;# 
   502     0015                     CCPR1           equ	21	;# 
   503     0015                     CCPR1L          equ	21	;# 
   504     0016                     CCPR1H          equ	22	;# 
   505     0017                     CCP1CON         equ	23	;# 
   506     0018                     RCSTA           equ	24	;# 
   507     0019                     TXREG           equ	25	;# 
   508     001A                     RCREG           equ	26	;# 
   509     001B                     CCPR2           equ	27	;# 
   510     001B                     CCPR2L          equ	27	;# 
   511     001C                     CCPR2H          equ	28	;# 
   512     001D                     CCP2CON         equ	29	;# 
   513     001E                     ADRESH          equ	30	;# 
   514     001F                     ADCON0          equ	31	;# 
   515     0081                     OPTION_REG      equ	129	;# 
   516     0085                     TRISA           equ	133	;# 
   517     0086                     TRISB           equ	134	;# 
   518     0087                     TRISC           equ	135	;# 
   519     0088                     TRISD           equ	136	;# 
   520     0089                     TRISE           equ	137	;# 
   521     008C                     PIE1            equ	140	;# 
   522     008D                     PIE2            equ	141	;# 
   523     008E                     PCON            equ	142	;# 
   524     0091                     SSPCON2         equ	145	;# 
   525     0092                     PR2             equ	146	;# 
   526     0093                     SSPADD          equ	147	;# 
   527     0094                     SSPSTAT         equ	148	;# 
   528     0098                     TXSTA           equ	152	;# 
   529     0099                     SPBRG           equ	153	;# 
   530     009C                     CMCON           equ	156	;# 
   531     009D                     CVRCON          equ	157	;# 
   532     009E                     ADRESL          equ	158	;# 
   533     009F                     ADCON1          equ	159	;# 
   534     010C                     EEDATA          equ	268	;# 
   535     010D                     EEADR           equ	269	;# 
   536     010E                     EEDATH          equ	270	;# 
   537     010F                     EEADRH          equ	271	;# 
   538     018C                     EECON1          equ	396	;# 
   539     018D                     EECON2          equ	397	;# 
   540     0000                     INDF            equ	0	;# 
   541     0001                     TMR0            equ	1	;# 
   542     0002                     PCL             equ	2	;# 
   543     0003                     STATUS          equ	3	;# 
   544     0004                     FSR             equ	4	;# 
   545     0005                     PORTA           equ	5	;# 
   546     0006                     PORTB           equ	6	;# 
   547     0007                     PORTC           equ	7	;# 
   548     0008                     PORTD           equ	8	;# 
   549     0009                     PORTE           equ	9	;# 
   550     000A                     PCLATH          equ	10	;# 
   551     000B                     INTCON          equ	11	;# 
   552     000C                     PIR1            equ	12	;# 
   553     000D                     PIR2            equ	13	;# 
   554     000E                     TMR1            equ	14	;# 
   555     000E                     TMR1L           equ	14	;# 
   556     000F                     TMR1H           equ	15	;# 
   557     0010                     T1CON           equ	16	;# 
   558     0011                     TMR2            equ	17	;# 
   559     0012                     T2CON           equ	18	;# 
   560     0013                     SSPBUF          equ	19	;# 
   561     0014                     SSPCON          equ	20	;# 
   562     0015                     CCPR1           equ	21	;# 
   563     0015                     CCPR1L          equ	21	;# 
   564     0016                     CCPR1H          equ	22	;# 
   565     0017                     CCP1CON         equ	23	;# 
   566     0018                     RCSTA           equ	24	;# 
   567     0019                     TXREG           equ	25	;# 
   568     001A                     RCREG           equ	26	;# 
   569     001B                     CCPR2           equ	27	;# 
   570     001B                     CCPR2L          equ	27	;# 
   571     001C                     CCPR2H          equ	28	;# 
   572     001D                     CCP2CON         equ	29	;# 
   573     001E                     ADRESH          equ	30	;# 
   574     001F                     ADCON0          equ	31	;# 
   575     0081                     OPTION_REG      equ	129	;# 
   576     0085                     TRISA           equ	133	;# 
   577     0086                     TRISB           equ	134	;# 
   578     0087                     TRISC           equ	135	;# 
   579     0088                     TRISD           equ	136	;# 
   580     0089                     TRISE           equ	137	;# 
   581     008C                     PIE1            equ	140	;# 
   582     008D                     PIE2            equ	141	;# 
   583     008E                     PCON            equ	142	;# 
   584     0091                     SSPCON2         equ	145	;# 
   585     0092                     PR2             equ	146	;# 
   586     0093                     SSPADD          equ	147	;# 
   587     0094                     SSPSTAT         equ	148	;# 
   588     0098                     TXSTA           equ	152	;# 
   589     0099                     SPBRG           equ	153	;# 
   590     009C                     CMCON           equ	156	;# 
   591     009D                     CVRCON          equ	157	;# 
   592     009E                     ADRESL          equ	158	;# 
   593     009F                     ADCON1          equ	159	;# 
   594     010C                     EEDATA          equ	268	;# 
   595     010D                     EEADR           equ	269	;# 
   596     010E                     EEDATH          equ	270	;# 
   597     010F                     EEADRH          equ	271	;# 
   598     018C                     EECON1          equ	396	;# 
   599     018D                     EECON2          equ	397	;# 
   600     0000                     INDF            equ	0	;# 
   601     0001                     TMR0            equ	1	;# 
   602     0002                     PCL             equ	2	;# 
   603     0003                     STATUS          equ	3	;# 
   604     0004                     FSR             equ	4	;# 
   605     0005                     PORTA           equ	5	;# 
   606     0006                     PORTB           equ	6	;# 
   607     0007                     PORTC           equ	7	;# 
   608     0008                     PORTD           equ	8	;# 
   609     0009                     PORTE           equ	9	;# 
   610     000A                     PCLATH          equ	10	;# 
   611     000B                     INTCON          equ	11	;# 
   612     000C                     PIR1            equ	12	;# 
   613     000D                     PIR2            equ	13	;# 
   614     000E                     TMR1            equ	14	;# 
   615     000E                     TMR1L           equ	14	;# 
   616     000F                     TMR1H           equ	15	;# 
   617     0010                     T1CON           equ	16	;# 
   618     0011                     TMR2            equ	17	;# 
   619     0012                     T2CON           equ	18	;# 
   620     0013                     SSPBUF          equ	19	;# 
   621     0014                     SSPCON          equ	20	;# 
   622     0015                     CCPR1           equ	21	;# 
   623     0015                     CCPR1L          equ	21	;# 
   624     0016                     CCPR1H          equ	22	;# 
   625     0017                     CCP1CON         equ	23	;# 
   626     0018                     RCSTA           equ	24	;# 
   627     0019                     TXREG           equ	25	;# 
   628     001A                     RCREG           equ	26	;# 
   629     001B                     CCPR2           equ	27	;# 
   630     001B                     CCPR2L          equ	27	;# 
   631     001C                     CCPR2H          equ	28	;# 
   632     001D                     CCP2CON         equ	29	;# 
   633     001E                     ADRESH          equ	30	;# 
   634     001F                     ADCON0          equ	31	;# 
   635     0081                     OPTION_REG      equ	129	;# 
   636     0085                     TRISA           equ	133	;# 
   637     0086                     TRISB           equ	134	;# 
   638     0087                     TRISC           equ	135	;# 
   639     0088                     TRISD           equ	136	;# 
   640     0089                     TRISE           equ	137	;# 
   641     008C                     PIE1            equ	140	;# 
   642     008D                     PIE2            equ	141	;# 
   643     008E                     PCON            equ	142	;# 
   644     0091                     SSPCON2         equ	145	;# 
   645     0092                     PR2             equ	146	;# 
   646     0093                     SSPADD          equ	147	;# 
   647     0094                     SSPSTAT         equ	148	;# 
   648     0098                     TXSTA           equ	152	;# 
   649     0099                     SPBRG           equ	153	;# 
   650     009C                     CMCON           equ	156	;# 
   651     009D                     CVRCON          equ	157	;# 
   652     009E                     ADRESL          equ	158	;# 
   653     009F                     ADCON1          equ	159	;# 
   654     010C                     EEDATA          equ	268	;# 
   655     010D                     EEADR           equ	269	;# 
   656     010E                     EEDATH          equ	270	;# 
   657     010F                     EEADRH          equ	271	;# 
   658     018C                     EECON1          equ	396	;# 
   659     018D                     EECON2          equ	397	;# 
   660     0000                     INDF            equ	0	;# 
   661     0001                     TMR0            equ	1	;# 
   662     0002                     PCL             equ	2	;# 
   663     0003                     STATUS          equ	3	;# 
   664     0004                     FSR             equ	4	;# 
   665     0005                     PORTA           equ	5	;# 
   666     0006                     PORTB           equ	6	;# 
   667     0007                     PORTC           equ	7	;# 
   668     0008                     PORTD           equ	8	;# 
   669     0009                     PORTE           equ	9	;# 
   670     000A                     PCLATH          equ	10	;# 
   671     000B                     INTCON          equ	11	;# 
   672     000C                     PIR1            equ	12	;# 
   673     000D                     PIR2            equ	13	;# 
   674     000E                     TMR1            equ	14	;# 
   675     000E                     TMR1L           equ	14	;# 
   676     000F                     TMR1H           equ	15	;# 
   677     0010                     T1CON           equ	16	;# 
   678     0011                     TMR2            equ	17	;# 
   679     0012                     T2CON           equ	18	;# 
   680     0013                     SSPBUF          equ	19	;# 
   681     0014                     SSPCON          equ	20	;# 
   682     0015                     CCPR1           equ	21	;# 
   683     0015                     CCPR1L          equ	21	;# 
   684     0016                     CCPR1H          equ	22	;# 
   685     0017                     CCP1CON         equ	23	;# 
   686     0018                     RCSTA           equ	24	;# 
   687     0019                     TXREG           equ	25	;# 
   688     001A                     RCREG           equ	26	;# 
   689     001B                     CCPR2           equ	27	;# 
   690     001B                     CCPR2L          equ	27	;# 
   691     001C                     CCPR2H          equ	28	;# 
   692     001D                     CCP2CON         equ	29	;# 
   693     001E                     ADRESH          equ	30	;# 
   694     001F                     ADCON0          equ	31	;# 
   695     0081                     OPTION_REG      equ	129	;# 
   696     0085                     TRISA           equ	133	;# 
   697     0086                     TRISB           equ	134	;# 
   698     0087                     TRISC           equ	135	;# 
   699     0088                     TRISD           equ	136	;# 
   700     0089                     TRISE           equ	137	;# 
   701     008C                     PIE1            equ	140	;# 
   702     008D                     PIE2            equ	141	;# 
   703     008E                     PCON            equ	142	;# 
   704     0091                     SSPCON2         equ	145	;# 
   705     0092                     PR2             equ	146	;# 
   706     0093                     SSPADD          equ	147	;# 
   707     0094                     SSPSTAT         equ	148	;# 
   708     0098                     TXSTA           equ	152	;# 
   709     0099                     SPBRG           equ	153	;# 
   710     009C                     CMCON           equ	156	;# 
   711     009D                     CVRCON          equ	157	;# 
   712     009E                     ADRESL          equ	158	;# 
   713     009F                     ADCON1          equ	159	;# 
   714     010C                     EEDATA          equ	268	;# 
   715     010D                     EEADR           equ	269	;# 
   716     010E                     EEDATH          equ	270	;# 
   717     010F                     EEADRH          equ	271	;# 
   718     018C                     EECON1          equ	396	;# 
   719     018D                     EECON2          equ	397	;# 
   720     0000                     INDF            equ	0	;# 
   721     0001                     TMR0            equ	1	;# 
   722     0002                     PCL             equ	2	;# 
   723     0003                     STATUS          equ	3	;# 
   724     0004                     FSR             equ	4	;# 
   725     0005                     PORTA           equ	5	;# 
   726     0006                     PORTB           equ	6	;# 
   727     0007                     PORTC           equ	7	;# 
   728     0008                     PORTD           equ	8	;# 
   729     0009                     PORTE           equ	9	;# 
   730     000A                     PCLATH          equ	10	;# 
   731     000B                     INTCON          equ	11	;# 
   732     000C                     PIR1            equ	12	;# 
   733     000D                     PIR2            equ	13	;# 
   734     000E                     TMR1            equ	14	;# 
   735     000E                     TMR1L           equ	14	;# 
   736     000F                     TMR1H           equ	15	;# 
   737     0010                     T1CON           equ	16	;# 
   738     0011                     TMR2            equ	17	;# 
   739     0012                     T2CON           equ	18	;# 
   740     0013                     SSPBUF          equ	19	;# 
   741     0014                     SSPCON          equ	20	;# 
   742     0015                     CCPR1           equ	21	;# 
   743     0015                     CCPR1L          equ	21	;# 
   744     0016                     CCPR1H          equ	22	;# 
   745     0017                     CCP1CON         equ	23	;# 
   746     0018                     RCSTA           equ	24	;# 
   747     0019                     TXREG           equ	25	;# 
   748     001A                     RCREG           equ	26	;# 
   749     001B                     CCPR2           equ	27	;# 
   750     001B                     CCPR2L          equ	27	;# 
   751     001C                     CCPR2H          equ	28	;# 
   752     001D                     CCP2CON         equ	29	;# 
   753     001E                     ADRESH          equ	30	;# 
   754     001F                     ADCON0          equ	31	;# 
   755     0081                     OPTION_REG      equ	129	;# 
   756     0085                     TRISA           equ	133	;# 
   757     0086                     TRISB           equ	134	;# 
   758     0087                     TRISC           equ	135	;# 
   759     0088                     TRISD           equ	136	;# 
   760     0089                     TRISE           equ	137	;# 
   761     008C                     PIE1            equ	140	;# 
   762     008D                     PIE2            equ	141	;# 
   763     008E                     PCON            equ	142	;# 
   764     0091                     SSPCON2         equ	145	;# 
   765     0092                     PR2             equ	146	;# 
   766     0093                     SSPADD          equ	147	;# 
   767     0094                     SSPSTAT         equ	148	;# 
   768     0098                     TXSTA           equ	152	;# 
   769     0099                     SPBRG           equ	153	;# 
   770     009C                     CMCON           equ	156	;# 
   771     009D                     CVRCON          equ	157	;# 
   772     009E                     ADRESL          equ	158	;# 
   773     009F                     ADCON1          equ	159	;# 
   774     010C                     EEDATA          equ	268	;# 
   775     010D                     EEADR           equ	269	;# 
   776     010E                     EEDATH          equ	270	;# 
   777     010F                     EEADRH          equ	271	;# 
   778     018C                     EECON1          equ	396	;# 
   779     018D                     EECON2          equ	397	;# 
   780     0000                     INDF            equ	0	;# 
   781     0001                     TMR0            equ	1	;# 
   782     0002                     PCL             equ	2	;# 
   783     0003                     STATUS          equ	3	;# 
   784     0004                     FSR             equ	4	;# 
   785     0005                     PORTA           equ	5	;# 
   786     0006                     PORTB           equ	6	;# 
   787     0007                     PORTC           equ	7	;# 
   788     0008                     PORTD           equ	8	;# 
   789     0009                     PORTE           equ	9	;# 
   790     000A                     PCLATH          equ	10	;# 
   791     000B                     INTCON          equ	11	;# 
   792     000C                     PIR1            equ	12	;# 
   793     000D                     PIR2            equ	13	;# 
   794     000E                     TMR1            equ	14	;# 
   795     000E                     TMR1L           equ	14	;# 
   796     000F                     TMR1H           equ	15	;# 
   797     0010                     T1CON           equ	16	;# 
   798     0011                     TMR2            equ	17	;# 
   799     0012                     T2CON           equ	18	;# 
   800     0013                     SSPBUF          equ	19	;# 
   801     0014                     SSPCON          equ	20	;# 
   802     0015                     CCPR1           equ	21	;# 
   803     0015                     CCPR1L          equ	21	;# 
   804     0016                     CCPR1H          equ	22	;# 
   805     0017                     CCP1CON         equ	23	;# 
   806     0018                     RCSTA           equ	24	;# 
   807     0019                     TXREG           equ	25	;# 
   808     001A                     RCREG           equ	26	;# 
   809     001B                     CCPR2           equ	27	;# 
   810     001B                     CCPR2L          equ	27	;# 
   811     001C                     CCPR2H          equ	28	;# 
   812     001D                     CCP2CON         equ	29	;# 
   813     001E                     ADRESH          equ	30	;# 
   814     001F                     ADCON0          equ	31	;# 
   815     0081                     OPTION_REG      equ	129	;# 
   816     0085                     TRISA           equ	133	;# 
   817     0086                     TRISB           equ	134	;# 
   818     0087                     TRISC           equ	135	;# 
   819     0088                     TRISD           equ	136	;# 
   820     0089                     TRISE           equ	137	;# 
   821     008C                     PIE1            equ	140	;# 
   822     008D                     PIE2            equ	141	;# 
   823     008E                     PCON            equ	142	;# 
   824     0091                     SSPCON2         equ	145	;# 
   825     0092                     PR2             equ	146	;# 
   826     0093                     SSPADD          equ	147	;# 
   827     0094                     SSPSTAT         equ	148	;# 
   828     0098                     TXSTA           equ	152	;# 
   829     0099                     SPBRG           equ	153	;# 
   830     009C                     CMCON           equ	156	;# 
   831     009D                     CVRCON          equ	157	;# 
   832     009E                     ADRESL          equ	158	;# 
   833     009F                     ADCON1          equ	159	;# 
   834     010C                     EEDATA          equ	268	;# 
   835     010D                     EEADR           equ	269	;# 
   836     010E                     EEDATH          equ	270	;# 
   837     010F                     EEADRH          equ	271	;# 
   838     018C                     EECON1          equ	396	;# 
   839     018D                     EECON2          equ	397	;# 
   840                           
   841                           	psect	idataCOMMON
   842     0003                     __pidataCOMMON:
   843                           
   844                           ;initializer for read_digital_keypad@once
   845     0003  3401               	retlw	1
   846                           
   847                           	psect	idataBANK0
   848     0800                     __pidataBANK0:
   849                           
   850                           ;initializer for _sw_p
   851     0800  3403               	retlw	3
   852                           
   853                           	psect	idataBANK1
   854     12D6                     __pidataBANK1:
   855                           
   856                           ;initializer for main@F1231
   857     12D6  3484               	retlw	low (STR_1| (0+32768))
   858     12D7  3491               	retlw	high (STR_1| (0+32768))
   859     12D8  3487               	retlw	low (STR_2| (0+32768))
   860     12D9  3491               	retlw	high (STR_2| (0+32768))
   861     12DA  3478               	retlw	low (STR_3| (0+32768))
   862     12DB  3491               	retlw	high (STR_3| (0+32768))
   863     12DC  347B               	retlw	low (STR_4| (0+32768))
   864     12DD  3491               	retlw	high (STR_4| (0+32768))
   865     12DE  347E               	retlw	low (STR_5| (0+32768))
   866     12DF  3491               	retlw	high (STR_5| (0+32768))
   867     12E0  3481               	retlw	low (STR_6| (0+32768))
   868     12E1  3491               	retlw	high (STR_6| (0+32768))
   869                           
   870                           ;initializer for _menu
   871     12E2  3445               	retlw	low (STR_10| (0+32768))
   872     12E3  3491               	retlw	high (STR_10| (0+32768))
   873     12E4  3429               	retlw	low (STR_11| (0+32768))
   874     12E5  3491               	retlw	high (STR_11| (0+32768))
   875     12E6  34FD               	retlw	low (STR_12| (0+32768))
   876     12E7  3490               	retlw	high (STR_12| (0+32768))
   877     12E8  343C               	retlw	low (STR_13| (0+32768))
   878     12E9  3491               	retlw	high (STR_13| (0+32768))
   879     12EA  34AB               	retlw	low (STR_14| (0+32768))
   880     12EB  3490               	retlw	high (STR_14| (0+32768))
   881                           
   882                           ;initializer for main@F1224
   883     12EC  344F               	retlw	79
   884     12ED  344E               	retlw	78
   885     12EE  3400               	retlw	0
   886     0019                     _TXREG          set	25
   887     001A                     _RCREG          set	26
   888     001E                     _ADRESH         set	30
   889     0013                     _SSPBUF         set	19
   890     0006                     _PORTB          set	6
   891     0008                     _PORTD          set	8
   892     0064                     _TXIF           set	100
   893     0065                     _RCIF           set	101
   894     00C4                     _CREN           set	196
   895     00C7                     _SPEN           set	199
   896     0091                     _T2CKPS1        set	145
   897     0090                     _T2CKPS0        set	144
   898     0061                     _TMR2IF         set	97
   899     00FA                     _nDONE          set	250
   900     00FA                     _GO             set	250
   901     00F8                     _ADON           set	248
   902     00A5                     _SSPEN          set	165
   903     00A3                     _SSPM3          set	163
   904     0049                     _RE1            set	73
   905     004A                     _RE2            set	74
   906     0092                     _TMR2ON         set	146
   907     005F                     _GIE            set	95
   908     005E                     _PEIE           set	94
   909     0099                     _SPBRG          set	153
   910     0092                     _PR2            set	146
   911     009E                     _ADRESL         set	158
   912     0091                     _SSPCON2        set	145
   913     0093                     _SSPADD         set	147
   914     0086                     _TRISB          set	134
   915     0088                     _TRISD          set	136
   916     0465                     _RCIE           set	1125
   917     0461                     _TMR2IE         set	1121
   918     04FF                     _ADFM           set	1279
   919     048E                     _ACKSTAT        set	1166
   920     048C                     _ACKEN          set	1164
   921     048D                     _ACKDT          set	1165
   922     048B                     _RCEN           set	1163
   923     048A                     _PEN            set	1162
   924     0488                     _SEN            set	1160
   925     04A2                     _R_nW           set	1186
   926     0449                     _TRISE1         set	1097
   927     044A                     _TRISE2         set	1098
   928                           
   929                           	psect	strings
   930     118A                     __pstrings:
   931     118A                     stringtab:
   932     118A                     __stringtab:
   933                           
   934                           ;	String table - string pointers are 2 bytes each
   935     118A  1BFF               	btfsc	btemp+1,7
   936     118B  2994               	ljmp	stringcode
   937     118C  1383               	bcf	3,7
   938     118D  187F               	btfsc	btemp+1,0
   939     118E  1783               	bsf	3,7
   940     118F  0800               	movf	0,w
   941     1190  0A84               	incf	4,f
   942     1191  1903               	skipnz
   943     1192  0AFF               	incf	btemp+1,f
   944     1193  0008               	return
   945     1194                     stringcode:
   946     1194  087F               	movf	btemp+1,w
   947     1195  397F               	andlw	127
   948     1196  008A               	movwf	10
   949     1197  0804               	movf	4,w
   950     1198  0A84               	incf	4,f
   951     1199  1903               	skipnz
   952     119A  0AFF               	incf	btemp+1,f
   953     119B  0082               	movwf	2
   954     119C                     __stringbase:
   955     119C                     __end_of__stringtab:
   956                           
   957                           	psect	stringtext
   958     1000                     __pstringtext:
   959     1000                     STR_31:
   960     1000  340D               	retlw	13
   961     1001  340A               	retlw	10
   962     1002  344E               	retlw	78	;'N'
   963     1003  346F               	retlw	111	;'o'
   964     1004  3420               	retlw	32	;' '
   965     1005  346C               	retlw	108	;'l'
   966     1006  346F               	retlw	111	;'o'
   967     1007  3467               	retlw	103	;'g'
   968     1008  3473               	retlw	115	;'s'
   969     1009  3420               	retlw	32	;' '
   970     100A  3461               	retlw	97	;'a'
   971     100B  3476               	retlw	118	;'v'
   972     100C  3461               	retlw	97	;'a'
   973     100D  3469               	retlw	105	;'i'
   974     100E  346C               	retlw	108	;'l'
   975     100F  3461               	retlw	97	;'a'
   976     1010  3462               	retlw	98	;'b'
   977     1011  346C               	retlw	108	;'l'
   978     1012  3465               	retlw	101	;'e'
   979     1013  340D               	retlw	13
   980     1014  340A               	retlw	10
   981     1015  3400               	retlw	0
   982     1016                     STR_27:
   983     1016  340D               	retlw	13
   984     1017  340A               	retlw	10
   985     1018  3423               	retlw	35	;'#'
   986     1019  3420               	retlw	32	;' '
   987     101A  3454               	retlw	84	;'T'
   988     101B  3449               	retlw	73	;'I'
   989     101C  344D               	retlw	77	;'M'
   990     101D  3445               	retlw	69	;'E'
   991     101E  3420               	retlw	32	;' '
   992     101F  3420               	retlw	32	;' '
   993     1020  3420               	retlw	32	;' '
   994     1021  3420               	retlw	32	;' '
   995     1022  3420               	retlw	32	;' '
   996     1023  3445               	retlw	69	;'E'
   997     1024  3456               	retlw	86	;'V'
   998     1025  3420               	retlw	32	;' '
   999     1026  3453               	retlw	83	;'S'
  1000     1027  3450               	retlw	80	;'P'
  1001     1028  340D               	retlw	13
  1002     1029  340A               	retlw	10
  1003     102A  3400               	retlw	0
  1004     102B                     STR_23:
  1005     102B  3423               	retlw	35	;'#'
  1006     102C  3420               	retlw	32	;' '
  1007     102D  3454               	retlw	84	;'T'
  1008     102E  3449               	retlw	73	;'I'
  1009     102F  344D               	retlw	77	;'M'
  1010     1030  3445               	retlw	69	;'E'
  1011     1031  3420               	retlw	32	;' '
  1012     1032  3420               	retlw	32	;' '
  1013     1033  3420               	retlw	32	;' '
  1014     1034  3420               	retlw	32	;' '
  1015     1035  3420               	retlw	32	;' '
  1016     1036  3445               	retlw	69	;'E'
  1017     1037  3456               	retlw	86	;'V'
  1018     1038  3420               	retlw	32	;' '
  1019     1039  3453               	retlw	83	;'S'
  1020     103A  3450               	retlw	80	;'P'
  1021     103B  3400               	retlw	0
  1022     103C                     STR_38:
  1023     103C  3445               	retlw	69	;'E'
  1024     103D  346E               	retlw	110	;'n'
  1025     103E  3474               	retlw	116	;'t'
  1026     103F  3465               	retlw	101	;'e'
  1027     1040  3472               	retlw	114	;'r'
  1028     1041  3420               	retlw	32	;' '
  1029     1042  346E               	retlw	110	;'n'
  1030     1043  3465               	retlw	101	;'e'
  1031     1044  3477               	retlw	119	;'w'
  1032     1045  3420               	retlw	32	;' '
  1033     1046  3470               	retlw	112	;'p'
  1034     1047  3461               	retlw	97	;'a'
  1035     1048  3473               	retlw	115	;'s'
  1036     1049  3473               	retlw	115	;'s'
  1037     104A  3477               	retlw	119	;'w'
  1038     104B  3464               	retlw	100	;'d'
  1039     104C  3400               	retlw	0
  1040     104D                     STR_15:
  1041     104D  3454               	retlw	84	;'T'
  1042     104E  3449               	retlw	73	;'I'
  1043     104F  344D               	retlw	77	;'M'
  1044     1050  3445               	retlw	69	;'E'
  1045     1051  3420               	retlw	32	;' '
  1046     1052  3420               	retlw	32	;' '
  1047     1053  3420               	retlw	32	;' '
  1048     1054  3420               	retlw	32	;' '
  1049     1055  3420               	retlw	32	;' '
  1050     1056  3445               	retlw	69	;'E'
  1051     1057  3456               	retlw	86	;'V'
  1052     1058  3420               	retlw	32	;' '
  1053     1059  3420               	retlw	32	;' '
  1054     105A  3453               	retlw	83	;'S'
  1055     105B  3450               	retlw	80	;'P'
  1056     105C  3400               	retlw	0
  1057     105D                     STR_28:
  1058     105D  344C               	retlw	76	;'L'
  1059     105E  346F               	retlw	111	;'o'
  1060     105F  3467               	retlw	103	;'g'
  1061     1060  3473               	retlw	115	;'s'
  1062     1061  3420               	retlw	32	;' '
  1063     1062  3444               	retlw	68	;'D'
  1064     1063  346F               	retlw	111	;'o'
  1065     1064  3477               	retlw	119	;'w'
  1066     1065  346E               	retlw	110	;'n'
  1067     1066  346C               	retlw	108	;'l'
  1068     1067  346F               	retlw	111	;'o'
  1069     1068  3461               	retlw	97	;'a'
  1070     1069  3464               	retlw	100	;'d'
  1071     106A  3465               	retlw	101	;'e'
  1072     106B  3464               	retlw	100	;'d'
  1073     106C  3400               	retlw	0
  1074     106D                     STR_17:
  1075     106D  3459               	retlw	89	;'Y'
  1076     106E  346F               	retlw	111	;'o'
  1077     106F  3475               	retlw	117	;'u'
  1078     1070  3420               	retlw	32	;' '
  1079     1071  3461               	retlw	97	;'a'
  1080     1072  3472               	retlw	114	;'r'
  1081     1073  3465               	retlw	101	;'e'
  1082     1074  3420               	retlw	32	;' '
  1083     1075  3462               	retlw	98	;'b'
  1084     1076  346C               	retlw	108	;'l'
  1085     1077  346F               	retlw	111	;'o'
  1086     1078  3463               	retlw	99	;'c'
  1087     1079  346B               	retlw	107	;'k'
  1088     107A  3465               	retlw	101	;'e'
  1089     107B  3464               	retlw	100	;'d'
  1090     107C  3400               	retlw	0
  1091     107D                     STR_40:
  1092     107D  3450               	retlw	80	;'P'
  1093     107E  3461               	retlw	97	;'a'
  1094     107F  3473               	retlw	115	;'s'
  1095     1080  3473               	retlw	115	;'s'
  1096     1081  3477               	retlw	119	;'w'
  1097     1082  346F               	retlw	111	;'o'
  1098     1083  3472               	retlw	114	;'r'
  1099     1084  3464               	retlw	100	;'d'
  1100     1085  3420               	retlw	32	;' '
  1101     1086  3463               	retlw	99	;'c'
  1102     1087  3468               	retlw	104	;'h'
  1103     1088  3461               	retlw	97	;'a'
  1104     1089  346E               	retlw	110	;'n'
  1105     108A  3467               	retlw	103	;'g'
  1106     108B  3465               	retlw	101	;'e'
  1107     108C  3400               	retlw	0
  1108     108D                     STR_20:
  1109     108D  3457               	retlw	87	;'W'
  1110     108E  3472               	retlw	114	;'r'
  1111     108F  346F               	retlw	111	;'o'
  1112     1090  346E               	retlw	110	;'n'
  1113     1091  3467               	retlw	103	;'g'
  1114     1092  3420               	retlw	32	;' '
  1115     1093  3450               	retlw	80	;'P'
  1116     1094  3461               	retlw	97	;'a'
  1117     1095  3473               	retlw	115	;'s'
  1118     1096  3473               	retlw	115	;'s'
  1119     1097  3477               	retlw	119	;'w'
  1120     1098  346F               	retlw	111	;'o'
  1121     1099  3472               	retlw	114	;'r'
  1122     109A  3464               	retlw	100	;'d'
  1123     109B  3400               	retlw	0
  1124     109C                     STR_9:
  1125     109C  3445               	retlw	69	;'E'
  1126     109D  344E               	retlw	78	;'N'
  1127     109E  3454               	retlw	84	;'T'
  1128     109F  3445               	retlw	69	;'E'
  1129     10A0  3452               	retlw	82	;'R'
  1130     10A1  3420               	retlw	32	;' '
  1131     10A2  3450               	retlw	80	;'P'
  1132     10A3  3441               	retlw	65	;'A'
  1133     10A4  3453               	retlw	83	;'S'
  1134     10A5  3453               	retlw	83	;'S'
  1135     10A6  3457               	retlw	87	;'W'
  1136     10A7  344F               	retlw	79	;'O'
  1137     10A8  3452               	retlw	82	;'R'
  1138     10A9  3444               	retlw	68	;'D'
  1139     10AA  3400               	retlw	0
  1140     10AB                     STR_14:
  1141     10AB  3443               	retlw	67	;'C'
  1142     10AC  3468               	retlw	104	;'h'
  1143     10AD  3461               	retlw	97	;'a'
  1144     10AE  346E               	retlw	110	;'n'
  1145     10AF  3467               	retlw	103	;'g'
  1146     10B0  3465               	retlw	101	;'e'
  1147     10B1  3420               	retlw	32	;' '
  1148     10B2  3470               	retlw	112	;'p'
  1149     10B3  3461               	retlw	97	;'a'
  1150     10B4  3473               	retlw	115	;'s'
  1151     10B5  3473               	retlw	115	;'s'
  1152     10B6  3477               	retlw	119	;'w'
  1153     10B7  3464               	retlw	100	;'d'
  1154     10B8  3400               	retlw	0
  1155     10B9                     STR_39:
  1156     10B9  3452               	retlw	82	;'R'
  1157     10BA  3465               	retlw	101	;'e'
  1158     10BB  346E               	retlw	110	;'n'
  1159     10BC  3474               	retlw	116	;'t'
  1160     10BD  3465               	retlw	101	;'e'
  1161     10BE  3472               	retlw	114	;'r'
  1162     10BF  3420               	retlw	32	;' '
  1163     10C0  3470               	retlw	112	;'p'
  1164     10C1  3461               	retlw	97	;'a'
  1165     10C2  3473               	retlw	115	;'s'
  1166     10C3  3473               	retlw	115	;'s'
  1167     10C4  3477               	retlw	119	;'w'
  1168     10C5  3464               	retlw	100	;'d'
  1169     10C6  3400               	retlw	0
  1170     10C7                     STR_16:
  1171     10C7  344C               	retlw	76	;'L'
  1172     10C8  346F               	retlw	111	;'o'
  1173     10C9  3467               	retlw	103	;'g'
  1174     10CA  3469               	retlw	105	;'i'
  1175     10CB  346E               	retlw	110	;'n'
  1176     10CC  3420               	retlw	32	;' '
  1177     10CD  3453               	retlw	83	;'S'
  1178     10CE  3475               	retlw	117	;'u'
  1179     10CF  3463               	retlw	99	;'c'
  1180     10D0  3463               	retlw	99	;'c'
  1181     10D1  3465               	retlw	101	;'e'
  1182     10D2  3473               	retlw	115	;'s'
  1183     10D3  3473               	retlw	115	;'s'
  1184     10D4  3400               	retlw	0
  1185     10D5                     STR_21:
  1186     10D5  3461               	retlw	97	;'a'
  1187     10D6  3474               	retlw	116	;'t'
  1188     10D7  3474               	retlw	116	;'t'
  1189     10D8  3465               	retlw	101	;'e'
  1190     10D9  346D               	retlw	109	;'m'
  1191     10DA  3470               	retlw	112	;'p'
  1192     10DB  3474               	retlw	116	;'t'
  1193     10DC  3473               	retlw	115	;'s'
  1194     10DD  3420               	retlw	32	;' '
  1195     10DE  346C               	retlw	108	;'l'
  1196     10DF  3465               	retlw	101	;'e'
  1197     10E0  3466               	retlw	102	;'f'
  1198     10E1  3474               	retlw	116	;'t'
  1199     10E2  3400               	retlw	0
  1200     10E3                     STR_26:
  1201     10E3  344C               	retlw	76	;'L'
  1202     10E4  346F               	retlw	111	;'o'
  1203     10E5  3467               	retlw	103	;'g'
  1204     10E6  3473               	retlw	115	;'s'
  1205     10E7  3420               	retlw	32	;' '
  1206     10E8  3463               	retlw	99	;'c'
  1207     10E9  346C               	retlw	108	;'l'
  1208     10EA  3465               	retlw	101	;'e'
  1209     10EB  3461               	retlw	97	;'a'
  1210     10EC  3472               	retlw	114	;'r'
  1211     10ED  3465               	retlw	101	;'e'
  1212     10EE  3464               	retlw	100	;'d'
  1213     10EF  3400               	retlw	0
  1214     10F0                     STR_43:
  1215     10F0  346E               	retlw	110	;'n'
  1216     10F1  346F               	retlw	111	;'o'
  1217     10F2  3474               	retlw	116	;'t'
  1218     10F3  3420               	retlw	32	;' '
  1219     10F4  346D               	retlw	109	;'m'
  1220     10F5  3461               	retlw	97	;'a'
  1221     10F6  3474               	retlw	116	;'t'
  1222     10F7  3463               	retlw	99	;'c'
  1223     10F8  3468               	retlw	104	;'h'
  1224     10F9  3469               	retlw	105	;'i'
  1225     10FA  346E               	retlw	110	;'n'
  1226     10FB  3467               	retlw	103	;'g'
  1227     10FC  3400               	retlw	0
  1228     10FD                     STR_12:
  1229     10FD  3444               	retlw	68	;'D'
  1230     10FE  346F               	retlw	111	;'o'
  1231     10FF  3477               	retlw	119	;'w'
  1232     1100  346E               	retlw	110	;'n'
  1233     1101  346C               	retlw	108	;'l'
  1234     1102  346F               	retlw	111	;'o'
  1235     1103  3461               	retlw	97	;'a'
  1236     1104  3464               	retlw	100	;'d'
  1237     1105  3420               	retlw	32	;' '
  1238     1106  346C               	retlw	108	;'l'
  1239     1107  346F               	retlw	111	;'o'
  1240     1108  3467               	retlw	103	;'g'
  1241     1109  3400               	retlw	0
  1242     110A                     STR_34:
  1243     110A  3453               	retlw	83	;'S'
  1244     110B  3475               	retlw	117	;'u'
  1245     110C  3463               	retlw	99	;'c'
  1246     110D  3463               	retlw	99	;'c'
  1247     110E  3465               	retlw	101	;'e'
  1248     110F  3473               	retlw	115	;'s'
  1249     1110  3473               	retlw	115	;'s'
  1250     1111  3466               	retlw	102	;'f'
  1251     1112  3475               	retlw	117	;'u'
  1252     1113  346C               	retlw	108	;'l'
  1253     1114  3400               	retlw	0
  1254     1115                     STR_25:
  1255     1115  3441               	retlw	65	;'A'
  1256     1116  3476               	retlw	118	;'v'
  1257     1117  3461               	retlw	97	;'a'
  1258     1118  3469               	retlw	105	;'i'
  1259     1119  346C               	retlw	108	;'l'
  1260     111A  3461               	retlw	97	;'a'
  1261     111B  3462               	retlw	98	;'b'
  1262     111C  346C               	retlw	108	;'l'
  1263     111D  3465               	retlw	101	;'e'
  1264     111E  3400               	retlw	0
  1265     111F                     STR_30:
  1266     111F  3461               	retlw	97	;'a'
  1267     1120  3476               	retlw	118	;'v'
  1268     1121  3461               	retlw	97	;'a'
  1269     1122  3469               	retlw	105	;'i'
  1270     1123  346C               	retlw	108	;'l'
  1271     1124  3461               	retlw	97	;'a'
  1272     1125  3462               	retlw	98	;'b'
  1273     1126  346C               	retlw	108	;'l'
  1274     1127  3465               	retlw	101	;'e'
  1275     1128  3400               	retlw	0
  1276     1129                     STR_11:
  1277     1129  3443               	retlw	67	;'C'
  1278     112A  346C               	retlw	108	;'l'
  1279     112B  3465               	retlw	101	;'e'
  1280     112C  3461               	retlw	97	;'a'
  1281     112D  3472               	retlw	114	;'r'
  1282     112E  3420               	retlw	32	;' '
  1283     112F  346C               	retlw	108	;'l'
  1284     1130  346F               	retlw	111	;'o'
  1285     1131  3467               	retlw	103	;'g'
  1286     1132  3400               	retlw	0
  1287     1133                     STR_32:
  1288     1133  3448               	retlw	72	;'H'
  1289     1134  3448               	retlw	72	;'H'
  1290     1135  343A               	retlw	58	;':'
  1291     1136  344D               	retlw	77	;'M'
  1292     1137  344D               	retlw	77	;'M'
  1293     1138  343A               	retlw	58	;':'
  1294     1139  3453               	retlw	83	;'S'
  1295     113A  3453               	retlw	83	;'S'
  1296     113B  3400               	retlw	0
  1297     113C                     STR_13:
  1298     113C  3453               	retlw	83	;'S'
  1299     113D  3465               	retlw	101	;'e'
  1300     113E  3474               	retlw	116	;'t'
  1301     113F  3420               	retlw	32	;' '
  1302     1140  3474               	retlw	116	;'t'
  1303     1141  3469               	retlw	105	;'i'
  1304     1142  346D               	retlw	109	;'m'
  1305     1143  3465               	retlw	101	;'e'
  1306     1144  3400               	retlw	0
  1307     1145                     STR_10:
  1308     1145  3456               	retlw	86	;'V'
  1309     1146  3469               	retlw	105	;'i'
  1310     1147  3465               	retlw	101	;'e'
  1311     1148  3477               	retlw	119	;'w'
  1312     1149  3420               	retlw	32	;' '
  1313     114A  346C               	retlw	108	;'l'
  1314     114B  346F               	retlw	111	;'o'
  1315     114C  3467               	retlw	103	;'g'
  1316     114D  3400               	retlw	0
  1317     114E                     STR_18:
  1318     114E  3457               	retlw	87	;'W'
  1319     114F  3461               	retlw	97	;'a'
  1320     1150  3469               	retlw	105	;'i'
  1321     1151  3474               	retlw	116	;'t'
  1322     1152  3420               	retlw	32	;' '
  1323     1153  3466               	retlw	102	;'f'
  1324     1154  346F               	retlw	111	;'o'
  1325     1155  3472               	retlw	114	;'r'
  1326     1156  3400               	retlw	0
  1327     1157                     STR_33:
  1328     1157  3454               	retlw	84	;'T'
  1329     1158  3469               	retlw	105	;'i'
  1330     1159  346D               	retlw	109	;'m'
  1331     115A  3465               	retlw	101	;'e'
  1332     115B  3420               	retlw	32	;' '
  1333     115C  3473               	retlw	115	;'s'
  1334     115D  3465               	retlw	101	;'e'
  1335     115E  3474               	retlw	116	;'t'
  1336     115F  3400               	retlw	0
  1337     1160                     STR_24:
  1338     1160  344E               	retlw	78	;'N'
  1339     1161  346F               	retlw	111	;'o'
  1340     1162  3420               	retlw	32	;' '
  1341     1163  346C               	retlw	108	;'l'
  1342     1164  346F               	retlw	111	;'o'
  1343     1165  3467               	retlw	103	;'g'
  1344     1166  3473               	retlw	115	;'s'
  1345     1167  3400               	retlw	0
  1346     1168                     STR_19:
  1347     1168  3473               	retlw	115	;'s'
  1348     1169  3465               	retlw	101	;'e'
  1349     116A  3463               	retlw	99	;'c'
  1350     116B  3473               	retlw	115	;'s'
  1351     116C  3400               	retlw	0
  1352     116D                     STR_7:
  1353     116D  3431               	retlw	49	;'1'
  1354     116E  3430               	retlw	48	;'0'
  1355     116F  3431               	retlw	49	;'1'
  1356     1170  3430               	retlw	48	;'0'
  1357     1171  3400               	retlw	0
  1358     1172                     STR_35:
  1359     1172  3420               	retlw	32	;' '
  1360     1173  3420               	retlw	32	;' '
  1361     1174  3400               	retlw	0
  1362     1175                     STR_8:
  1363     1175  3443               	retlw	67	;'C'
  1364     1176  3420               	retlw	32	;' '
  1365     1177  3400               	retlw	0
  1366     1178                     STR_3:
  1367     1178  3447               	retlw	71	;'G'
  1368     1179  3431               	retlw	49	;'1'
  1369     117A  3400               	retlw	0
  1370     117B                     STR_4:
  1371     117B  3447               	retlw	71	;'G'
  1372     117C  3432               	retlw	50	;'2'
  1373     117D  3400               	retlw	0
  1374     117E                     STR_5:
  1375     117E  3447               	retlw	71	;'G'
  1376     117F  3433               	retlw	51	;'3'
  1377     1180  3400               	retlw	0
  1378     1181                     STR_6:
  1379     1181  3447               	retlw	71	;'G'
  1380     1182  3434               	retlw	52	;'4'
  1381     1183  3400               	retlw	0
  1382     1184                     STR_1:
  1383     1184  3447               	retlw	71	;'G'
  1384     1185  344E               	retlw	78	;'N'
  1385     1186  3400               	retlw	0
  1386     1187                     STR_2:
  1387     1187  3447               	retlw	71	;'G'
  1388     1188  3452               	retlw	82	;'R'
  1389     1189  3400               	retlw	0
  1390     1160                     STR_29          equ	STR_24
  1391     110A                     STR_41          equ	STR_34
  1392     1093                     STR_42          equ	STR_20+6
  1393     109C                     STR_22          equ	STR_9
  1394     1172                     STR_36          equ	STR_35
  1395     1172                     STR_37          equ	STR_35
  1396                           
  1397                           	psect	cinit
  1398     000F                     start_initialization:	
  1399                           ; #config settings
  1400                           
  1401     000F                     __initialization:
  1402                           
  1403                           ; Initialize objects allocated to BANK1
  1404     000F  1383               	bcf	3,7	;select IRP bank0
  1405     0010  30E0               	movlw	low (__pdataBANK1+25)
  1406     0011  00FD               	movwf	btemp+-1
  1407     0012  3012               	movlw	high __pidataBANK1
  1408     0013  00FE               	movwf	btemp
  1409     0014  30D6               	movlw	low __pidataBANK1
  1410     0015  00FF               	movwf	btemp+1
  1411     0016  30C7               	movlw	low __pdataBANK1
  1412     0017  0084               	movwf	4
  1413     0018  160A  118A  22B2  120A  118A  	fcall	init_ram0
  1414                           
  1415                           ; Initialize objects allocated to BANK0
  1416     001D  120A  158A  2000  120A  118A  	fcall	__pidataBANK0	;fetch initializer
  1417     0022  00EF               	movwf	__pdataBANK0& (0+127)
  1418                           
  1419                           ; Initialize objects allocated to COMMON
  1420     0023  120A  118A  2003  120A  118A  	fcall	__pidataCOMMON	;fetch initializer
  1421     0028  00FB               	movwf	__pdataCOMMON& (0+127)
  1422                           
  1423                           ; Clear objects allocated to BANK1
  1424     0029  30A0               	movlw	low __pbssBANK1
  1425     002A  0084               	movwf	4
  1426     002B  30C7               	movlw	low (__pbssBANK1+39)
  1427     002C  160A  118A  2213  120A  118A  	fcall	clear_ram0
  1428                           
  1429                           ; Clear objects allocated to BANK0
  1430     0031  3052               	movlw	low __pbssBANK0
  1431     0032  0084               	movwf	4
  1432     0033  306F               	movlw	low (__pbssBANK0+29)
  1433     0034  160A  118A  2213  120A  118A  	fcall	clear_ram0
  1434                           
  1435                           ; Clear objects allocated to COMMON
  1436     0039  01FA               	clrf	__pbssCOMMON& (0+127)
  1437     003A                     end_of_initialization:	
  1438                           ;End of C runtime variable initialization code
  1439                           
  1440     003A                     __end_of__initialization:
  1441     003A  0183               	clrf	3
  1442     003B  120A  118A  283E   	ljmp	_main	;jump to C main() function
  1443                           
  1444                           	psect	bssCOMMON
  1445     007A                     __pbssCOMMON:
  1446     007A                     _pos:
  1447     007A                     	ds	1
  1448                           
  1449                           	psect	dataCOMMON
  1450     007B                     __pdataCOMMON:
  1451     007B                     read_digital_keypad@once:
  1452     007B                     	ds	1
  1453                           
  1454                           	psect	bssBANK0
  1455     0052                     __pbssBANK0:
  1456     0052                     _saved_sp:
  1457     0052                     	ds	3
  1458     0055                     _saved_ev:
  1459     0055                     	ds	3
  1460     0058                     _clock_reg:
  1461     0058                     	ds	3
  1462     005B                     isr@count:
  1463     005B                     	ds	2
  1464     005D                     set_time@delay:
  1465     005D                     	ds	2
  1466     005F                     change_passwd@val:
  1467     005F                     	ds	1
  1468     0060                     change_passwd@i:
  1469     0060                     	ds	1
  1470     0061                     change_passwd@flag:
  1471     0061                     	ds	1
  1472     0062                     set_time@blink_flag:
  1473     0062                     	ds	1
  1474     0063                     set_time@field:
  1475     0063                     	ds	1
  1476     0064                     set_time@sec:
  1477     0064                     	ds	1
  1478     0065                     set_time@min:
  1479     0065                     	ds	1
  1480     0066                     set_time@hr:
  1481     0066                     	ds	1
  1482     0067                     view_log@view_pos:
  1483     0067                     	ds	1
  1484     0068                     login@attempts_left:
  1485     0068                     	ds	1
  1486     0069                     login@i:
  1487     0069                     	ds	1
  1488     006A                     _menu_pos:
  1489     006A                     	ds	1
  1490     006B                     _return_time:
  1491     006B                     	ds	1
  1492     006C                     _sec:
  1493     006C                     	ds	1
  1494     006D                     _log_count:
  1495     006D                     	ds	1
  1496     006E                     _log_flag:
  1497     006E                     	ds	1
  1498                           
  1499                           	psect	dataBANK0
  1500     006F                     __pdataBANK0:
  1501     006F                     _sw_p:
  1502     006F                     	ds	1
  1503                           
  1504                           	psect	bssBANK1
  1505     00A0                     __pbssBANK1:
  1506     00A0                     _saved_time:
  1507     00A0                     	ds	7
  1508     00A7                     _log:
  1509     00A7                     	ds	11
  1510     00B2                     _time:
  1511     00B2                     	ds	7
  1512     00B9                     change_passwd@re_enter:
  1513     00B9                     	ds	5
  1514     00BE                     change_passwd@new_pass:
  1515     00BE                     	ds	5
  1516     00C3                     login@user_passwd:
  1517     00C3                     	ds	4
  1518                           
  1519                           	psect	dataBANK1
  1520     00C7                     __pdataBANK1:
  1521     00C7                     main@F1231:
  1522     00C7                     	ds	12
  1523     00D3                     _menu:
  1524     00D3                     	ds	10
  1525     00DD                     main@F1224:
  1526     00DD                     	ds	3
  1527                           
  1528                           	psect	inittext
  1529     12AE                     init_fetch0:	
  1530                           ;	Called with low address in FSR and high address in W
  1531                           
  1532     12AE  087E               	movf	btemp,w
  1533     12AF  008A               	movwf	10
  1534     12B0  087F               	movf	btemp+1,w
  1535     12B1  0082               	movwf	2
  1536     12B2                     init_ram0:	
  1537                           ;Called with:
  1538                           ;	high address of idata address in btemp 
  1539                           ;	low address of idata address in btemp+1 
  1540                           ;	low address of data in FSR
  1541                           ;	high address + 1 of data in btemp-1
  1542                           
  1543     12B2  160A  118A  22AE  160A  118A  	fcall	init_fetch0
  1544     12B7  0080               	movwf	0
  1545     12B8  0A84               	incf	4,f
  1546     12B9  0804               	movf	4,w
  1547     12BA  067D               	xorwf	btemp+-1,w
  1548     12BB  1903               	btfsc	3,2
  1549     12BC  3400               	retlw	0
  1550     12BD  0AFF               	incf	btemp+1,f
  1551     12BE  1903               	btfsc	3,2
  1552     12BF  0AFE               	incf	btemp,f
  1553     12C0  2AB2               	goto	init_ram0
  1554                           
  1555                           	psect	clrtext
  1556     1213                     clear_ram0:	
  1557                           ;	Called with FSR containing the base address, and
  1558                           ;	W with the last address+1
  1559                           
  1560     1213  0064               	clrwdt	;clear the watchdog before getting into this loop
  1561     1214                     clrloop0:
  1562     1214  0180               	clrf	0	;clear RAM location pointed to by FSR
  1563     1215  0A84               	incf	4,f	;increment pointer
  1564     1216  0604               	xorwf	4,w	;XOR with final address
  1565     1217  1903               	btfsc	3,2	;have we reached the end yet?
  1566     1218  3400               	retlw	0	;all done for this memory range, return
  1567     1219  0604               	xorwf	4,w	;XOR again to restore value
  1568     121A  2A14               	goto	clrloop0	;do the next byte
  1569                           
  1570                           	psect	cstackCOMMON
  1571     0070                     __pcstackCOMMON:
  1572     0070                     ?_init_ds1307:
  1573     0070                     ?_init_digital_keypad:	
  1574                           ; 1 bytes @ 0x0
  1575                           
  1576     0070                     ?_init_adc:	
  1577                           ; 1 bytes @ 0x0
  1578                           
  1579     0070                     ?_init_clcd:	
  1580                           ; 1 bytes @ 0x0
  1581                           
  1582     0070                     ?_init_timer2:	
  1583                           ; 1 bytes @ 0x0
  1584                           
  1585     0070                     ?_read_digital_keypad:	
  1586                           ; 1 bytes @ 0x0
  1587                           
  1588     0070                     ?_clear_screen:	
  1589                           ; 1 bytes @ 0x0
  1590                           
  1591     0070                     ?_clear_log:	
  1592                           ; 1 bytes @ 0x0
  1593                           
  1594     0070                     ?_download_log:	
  1595                           ; 1 bytes @ 0x0
  1596                           
  1597     0070                     ?_read_ds1307:	
  1598                           ; 1 bytes @ 0x0
  1599                           
  1600     0070                     ?_i2c_start:	
  1601                           ; 1 bytes @ 0x0
  1602                           
  1603     0070                     ?_i2c_rep_start:	
  1604                           ; 1 bytes @ 0x0
  1605                           
  1606     0070                     ?_i2c_read:	
  1607                           ; 1 bytes @ 0x0
  1608                           
  1609     0070                     ?_i2c_stop:	
  1610                           ; 1 bytes @ 0x0
  1611                           
  1612     0070                     ?_read_external_eeprom:	
  1613                           ; 1 bytes @ 0x0
  1614                           
  1615     0070                     ?_putchar:	
  1616                           ; 1 bytes @ 0x0
  1617                           
  1618     0070                     ?_init_config:	
  1619                           ; 1 bytes @ 0x0
  1620                           
  1621     0070                     ?_main:	
  1622                           ; 1 bytes @ 0x0
  1623                           
  1624     0070                     ?_init_display_controller:	
  1625                           ; 1 bytes @ 0x0
  1626                           
  1627     0070                     ?_i2c_wait_for_idle:	
  1628                           ; 1 bytes @ 0x0
  1629                           
  1630     0070                     ?_get_time:	
  1631                           ; 1 bytes @ 0x0
  1632                           
  1633     0070                     ?_display_time:	
  1634                           ; 1 bytes @ 0x0
  1635                           
  1636     0070                     ?_log_car_event:	
  1637                           ; 1 bytes @ 0x0
  1638                           
  1639     0070                     ?_get_saved_log:	
  1640                           ; 1 bytes @ 0x0
  1641                           
  1642     0070                     ?_print_log:	
  1643                           ; 1 bytes @ 0x0
  1644                           
  1645     0070                     ?_display_uart:	
  1646                           ; 1 bytes @ 0x0
  1647                           
  1648     0070                     ?_isr:	
  1649                           ; 1 bytes @ 0x0
  1650                           
  1651     0070                     ?_i2c_write:	
  1652                           ; 1 bytes @ 0x0
  1653                           
  1654     0070                     ??_isr:	
  1655                           ; 2 bytes @ 0x0
  1656                           
  1657                           
  1658                           ; 1 bytes @ 0x0
  1659     0070                     	ds	2
  1660     0072                     ?_strcpy:
  1661     0072                     ?_clcd_write:	
  1662                           ; 1 bytes @ 0x2
  1663                           
  1664     0072                     ?_strncpy:	
  1665                           ; 1 bytes @ 0x2
  1666                           
  1667     0072                     ?___bmul:	
  1668                           ; 1 bytes @ 0x2
  1669                           
  1670     0072                     ?_read_adc:	
  1671                           ; 1 bytes @ 0x2
  1672                           
  1673     0072                     ?_strncmp:	
  1674                           ; 2 bytes @ 0x2
  1675                           
  1676     0072                     ?___awdiv:	
  1677                           ; 2 bytes @ 0x2
  1678                           
  1679     0072                     ?___awmod:	
  1680                           ; 2 bytes @ 0x2
  1681                           
  1682     0072                     ?___lldiv:	
  1683                           ; 2 bytes @ 0x2
  1684                           
  1685     0072                     clcd_write@mode:	
  1686                           ; 4 bytes @ 0x2
  1687                           
  1688     0072                     i2c_read@ack:	
  1689                           ; 1 bytes @ 0x2
  1690                           
  1691     0072                     i2c_write@data:	
  1692                           ; 1 bytes @ 0x2
  1693                           
  1694     0072                     putchar@data:	
  1695                           ; 1 bytes @ 0x2
  1696                           
  1697     0072                     ___bmul@multiplicand:	
  1698                           ; 1 bytes @ 0x2
  1699                           
  1700     0072                     strcpy@dest:	
  1701                           ; 1 bytes @ 0x2
  1702                           
  1703     0072                     strncmp@l:	
  1704                           ; 1 bytes @ 0x2
  1705                           
  1706     0072                     strncpy@d:	
  1707                           ; 1 bytes @ 0x2
  1708                           
  1709     0072                     ___awdiv@divisor:	
  1710                           ; 1 bytes @ 0x2
  1711                           
  1712     0072                     ___awmod@divisor:	
  1713                           ; 2 bytes @ 0x2
  1714                           
  1715     0072                     ___lldiv@divisor:	
  1716                           ; 2 bytes @ 0x2
  1717                           
  1718     0072                     ??_init_digital_keypad:	
  1719                           ; 4 bytes @ 0x2
  1720                           
  1721     0072                     ??_init_adc:	
  1722                           ; 1 bytes @ 0x2
  1723                           
  1724     0072                     ??_init_timer2:	
  1725                           ; 1 bytes @ 0x2
  1726                           
  1727     0072                     ??_read_digital_keypad:	
  1728                           ; 1 bytes @ 0x2
  1729                           
  1730     0072                     ??_i2c_start:	
  1731                           ; 1 bytes @ 0x2
  1732                           
  1733     0072                     ??_i2c_write:	
  1734                           ; 1 bytes @ 0x2
  1735                           
  1736     0072                     ??_i2c_rep_start:	
  1737                           ; 1 bytes @ 0x2
  1738                           
  1739     0072                     ??_i2c_read:	
  1740                           ; 1 bytes @ 0x2
  1741                           
  1742     0072                     ??_i2c_stop:	
  1743                           ; 1 bytes @ 0x2
  1744                           
  1745     0072                     ??_putchar:	
  1746                           ; 1 bytes @ 0x2
  1747                           
  1748     0072                     ??_i2c_wait_for_idle:	
  1749                           ; 1 bytes @ 0x2
  1750                           
  1751                           
  1752                           ; 1 bytes @ 0x2
  1753     0072                     	ds	1
  1754     0073                     ?_write_ds1307:
  1755     0073                     ?_puts:	
  1756                           ; 1 bytes @ 0x3
  1757                           
  1758     0073                     ?_write_external_eeprom:	
  1759                           ; 1 bytes @ 0x3
  1760                           
  1761     0073                     read_digital_keypad@mode:	
  1762                           ; 1 bytes @ 0x3
  1763                           
  1764     0073                     write_ds1307@data:	
  1765                           ; 1 bytes @ 0x3
  1766                           
  1767     0073                     i2c_read@data:	
  1768                           ; 1 bytes @ 0x3
  1769                           
  1770     0073                     display_uart@view_pos:	
  1771                           ; 1 bytes @ 0x3
  1772                           
  1773     0073                     write_external_eeprom@data:	
  1774                           ; 1 bytes @ 0x3
  1775                           
  1776     0073                     ___bmul@product:	
  1777                           ; 1 bytes @ 0x3
  1778                           
  1779     0073                     strncmp@r:	
  1780                           ; 1 bytes @ 0x3
  1781                           
  1782     0073                     strncpy@s:	
  1783                           ; 1 bytes @ 0x3
  1784                           
  1785     0073                     puts@s:	
  1786                           ; 1 bytes @ 0x3
  1787                           
  1788     0073                     strcpy@src:	
  1789                           ; 2 bytes @ 0x3
  1790                           
  1791     0073                     ??_clcd_write:	
  1792                           ; 2 bytes @ 0x3
  1793                           
  1794     0073                     ??_display_uart:	
  1795                           ; 1 bytes @ 0x3
  1796                           
  1797     0073                     ??___bmul:	
  1798                           ; 1 bytes @ 0x3
  1799                           
  1800                           
  1801                           ; 1 bytes @ 0x3
  1802     0073                     	ds	1
  1803     0074                     read_ds1307@addr:
  1804     0074                     write_ds1307@addr:	
  1805                           ; 1 bytes @ 0x4
  1806                           
  1807     0074                     write_external_eeprom@address:	
  1808                           ; 1 bytes @ 0x4
  1809                           
  1810     0074                     read_external_eeprom@address:	
  1811                           ; 1 bytes @ 0x4
  1812                           
  1813     0074                     ___bmul@multiplier:	
  1814                           ; 1 bytes @ 0x4
  1815                           
  1816     0074                     read_adc@adc_reg_val:	
  1817                           ; 1 bytes @ 0x4
  1818                           
  1819     0074                     ___awdiv@dividend:	
  1820                           ; 2 bytes @ 0x4
  1821                           
  1822     0074                     ___awmod@dividend:	
  1823                           ; 2 bytes @ 0x4
  1824                           
  1825     0074                     strncmp@n:	
  1826                           ; 2 bytes @ 0x4
  1827                           
  1828     0074                     strncpy@n:	
  1829                           ; 2 bytes @ 0x4
  1830                           
  1831     0074                     ??_read_adc:	
  1832                           ; 2 bytes @ 0x4
  1833                           
  1834     0074                     ??_read_ds1307:	
  1835                           ; 1 bytes @ 0x4
  1836                           
  1837     0074                     ??_write_ds1307:	
  1838                           ; 1 bytes @ 0x4
  1839                           
  1840     0074                     ??_read_external_eeprom:	
  1841                           ; 1 bytes @ 0x4
  1842                           
  1843     0074                     ??_write_external_eeprom:	
  1844                           ; 1 bytes @ 0x4
  1845                           
  1846                           
  1847                           ; 1 bytes @ 0x4
  1848     0074                     	ds	1
  1849     0075                     clcd_write@byte:
  1850     0075                     read_ds1307@data:	
  1851                           ; 1 bytes @ 0x5
  1852                           
  1853     0075                     read_external_eeprom@data:	
  1854                           ; 1 bytes @ 0x5
  1855                           
  1856     0075                     write_external_eeprom@wait:	
  1857                           ; 1 bytes @ 0x5
  1858                           
  1859     0075                     ??_strcpy:	
  1860                           ; 2 bytes @ 0x5
  1861                           
  1862     0075                     ??_puts:	
  1863                           ; 1 bytes @ 0x5
  1864                           
  1865                           
  1866                           ; 1 bytes @ 0x5
  1867     0075                     	ds	1
  1868     0076                     ?_clcd_print:
  1869     0076                     ?___lwdiv:	
  1870                           ; 1 bytes @ 0x6
  1871                           
  1872     0076                     init_ds1307@dummy:	
  1873                           ; 2 bytes @ 0x6
  1874                           
  1875     0076                     get_saved_log@view_pos:	
  1876                           ; 1 bytes @ 0x6
  1877                           
  1878     0076                     ___awdiv@counter:	
  1879                           ; 1 bytes @ 0x6
  1880                           
  1881     0076                     ___awmod@counter:	
  1882                           ; 1 bytes @ 0x6
  1883                           
  1884     0076                     strncpy@cp:	
  1885                           ; 1 bytes @ 0x6
  1886                           
  1887     0076                     clcd_print@str:	
  1888                           ; 1 bytes @ 0x6
  1889                           
  1890     0076                     ___lwdiv@divisor:	
  1891                           ; 2 bytes @ 0x6
  1892                           
  1893     0076                     ___lldiv@dividend:	
  1894                           ; 2 bytes @ 0x6
  1895                           
  1896     0076                     ??_init_ds1307:	
  1897                           ; 4 bytes @ 0x6
  1898                           
  1899     0076                     ??_clear_screen:	
  1900                           ; 1 bytes @ 0x6
  1901                           
  1902     0076                     ??_strncpy:	
  1903                           ; 1 bytes @ 0x6
  1904                           
  1905     0076                     ??_strncmp:	
  1906                           ; 1 bytes @ 0x6
  1907                           
  1908     0076                     ??_init_display_controller:	
  1909                           ; 1 bytes @ 0x6
  1910                           
  1911     0076                     ??_get_time:	
  1912                           ; 1 bytes @ 0x6
  1913                           
  1914     0076                     ??_get_saved_log:	
  1915                           ; 1 bytes @ 0x6
  1916                           
  1917     0076                     ??___awdiv:	
  1918                           ; 1 bytes @ 0x6
  1919                           
  1920     0076                     ??___awmod:	
  1921                           ; 1 bytes @ 0x6
  1922                           
  1923                           
  1924                           ; 1 bytes @ 0x6
  1925     0076                     	ds	1
  1926     0077                     ?_str_write_ext_eeprom:
  1927     0077                     get_saved_log@addr:	
  1928                           ; 1 bytes @ 0x7
  1929                           
  1930     0077                     ___awdiv@sign:	
  1931                           ; 1 bytes @ 0x7
  1932                           
  1933     0077                     ___awmod@sign:	
  1934                           ; 1 bytes @ 0x7
  1935                           
  1936     0077                     strcpy@d:	
  1937                           ; 1 bytes @ 0x7
  1938                           
  1939     0077                     str_write_ext_eeprom@data:	
  1940                           ; 1 bytes @ 0x7
  1941                           
  1942                           
  1943                           ; 2 bytes @ 0x7
  1944     0077                     	ds	1
  1945     0078                     clcd_print@addr:
  1946     0078                     get_saved_log@i:	
  1947                           ; 1 bytes @ 0x8
  1948                           
  1949     0078                     ___awdiv@quotient:	
  1950                           ; 1 bytes @ 0x8
  1951                           
  1952     0078                     ___lwdiv@dividend:	
  1953                           ; 2 bytes @ 0x8
  1954                           
  1955     0078                     ??_init_clcd:	
  1956                           ; 2 bytes @ 0x8
  1957                           
  1958                           
  1959                           ; 1 bytes @ 0x8
  1960     0078                     	ds	1
  1961     0079                     clear_log@reset_flag:
  1962     0079                     download_log@i_396:	
  1963                           ; 1 bytes @ 0x9
  1964                           
  1965     0079                     str_write_ext_eeprom@addr:	
  1966                           ; 1 bytes @ 0x9
  1967                           
  1968     0079                     ??_str_write_ext_eeprom:	
  1969                           ; 1 bytes @ 0x9
  1970                           
  1971     0079                     ??_clcd_print:	
  1972                           ; 1 bytes @ 0x9
  1973                           
  1974                           
  1975                           ; 1 bytes @ 0x9
  1976     0079                     	ds	1
  1977     007A                     ??_view_log:
  1978     007A                     ??_init_config:	
  1979                           ; 1 bytes @ 0xA
  1980                           
  1981     007A                     ??_clcd_putch:	
  1982                           ; 1 bytes @ 0xA
  1983                           
  1984     007A                     ??_display_time:	
  1985                           ; 1 bytes @ 0xA
  1986                           
  1987     007A                     ??_log_car_event:	
  1988                           ; 1 bytes @ 0xA
  1989                           
  1990     007A                     ??_print_log:	
  1991                           ; 1 bytes @ 0xA
  1992                           
  1993     007A                     ??___lwdiv:	
  1994                           ; 1 bytes @ 0xA
  1995                           
  1996                           
  1997                           	psect	cstackBANK0
  1998     0020                     __pcstackBANK0:	
  1999                           ; 1 bytes @ 0xA
  2000                           
  2001     0020                     ?_clcd_putch:
  2002     0020                     ?_save_time:	
  2003                           ; 1 bytes @ 0x0
  2004                           
  2005     0020                     clcd_putch@addr:	
  2006                           ; 1 bytes @ 0x0
  2007                           
  2008     0020                     log_car_event@addr:	
  2009                           ; 1 bytes @ 0x0
  2010                           
  2011     0020                     save_time@min:	
  2012                           ; 1 bytes @ 0x0
  2013                           
  2014     0020                     ___lwdiv@quotient:	
  2015                           ; 1 bytes @ 0x0
  2016                           
  2017     0020                     ??_clear_log:	
  2018                           ; 2 bytes @ 0x0
  2019                           
  2020     0020                     ??_download_log:	
  2021                           ; 1 bytes @ 0x0
  2022                           
  2023     0020                     ??___lldiv:	
  2024                           ; 1 bytes @ 0x0
  2025                           
  2026                           
  2027                           ; 1 bytes @ 0x0
  2028     0020                     	ds	1
  2029     0021                     ?_log_event:
  2030     0021                     clcd_putch@data:	
  2031                           ; 1 bytes @ 0x1
  2032                           
  2033     0021                     log_event@event:	
  2034                           ; 1 bytes @ 0x1
  2035                           
  2036     0021                     save_time@sec:	
  2037                           ; 1 bytes @ 0x1
  2038                           
  2039     0021                     ___lldiv@quotient:	
  2040                           ; 1 bytes @ 0x1
  2041                           
  2042                           
  2043                           ; 4 bytes @ 0x1
  2044     0021                     	ds	1
  2045     0022                     ?_display_dashboard:
  2046     0022                     ?_login:	
  2047                           ; 1 bytes @ 0x2
  2048                           
  2049     0022                     ?_menu_screen:	
  2050                           ; 1 bytes @ 0x2
  2051                           
  2052     0022                     ?_change_passwd:	
  2053                           ; 1 bytes @ 0x2
  2054                           
  2055     0022                     display_dashboard@event:	
  2056                           ; 1 bytes @ 0x2
  2057                           
  2058     0022                     log_event@speed:	
  2059                           ; 1 bytes @ 0x2
  2060                           
  2061     0022                     login@reset_flag:	
  2062                           ; 1 bytes @ 0x2
  2063                           
  2064     0022                     menu_screen@reset_flag:	
  2065                           ; 1 bytes @ 0x2
  2066                           
  2067     0022                     print_log@view_pos:	
  2068                           ; 1 bytes @ 0x2
  2069                           
  2070     0022                     change_passwd@reset_flag:	
  2071                           ; 1 bytes @ 0x2
  2072                           
  2073     0022                     ___lwdiv@counter:	
  2074                           ; 1 bytes @ 0x2
  2075                           
  2076     0022                     ??_save_time:	
  2077                           ; 1 bytes @ 0x2
  2078                           
  2079                           
  2080                           ; 1 bytes @ 0x2
  2081     0022                     	ds	1
  2082     0023                     ?_view_log:
  2083     0023                     display_dashboard@speed:	
  2084                           ; 1 bytes @ 0x3
  2085                           
  2086     0023                     view_log@reset_flag:	
  2087                           ; 1 bytes @ 0x3
  2088                           
  2089     0023                     ??_log_event:	
  2090                           ; 1 bytes @ 0x3
  2091                           
  2092     0023                     ??_login:	
  2093                           ; 1 bytes @ 0x3
  2094                           
  2095     0023                     ??_menu_screen:	
  2096                           ; 1 bytes @ 0x3
  2097                           
  2098     0023                     ??_change_passwd:	
  2099                           ; 1 bytes @ 0x3
  2100                           
  2101                           
  2102                           ; 1 bytes @ 0x3
  2103     0023                     	ds	1
  2104     0024                     view_log@key:
  2105     0024                     ??_display_dashboard:	
  2106                           ; 1 bytes @ 0x4
  2107                           
  2108                           
  2109                           ; 1 bytes @ 0x4
  2110     0024                     	ds	1
  2111     0025                     menu_screen@key:
  2112     0025                     ___lldiv@counter:	
  2113                           ; 1 bytes @ 0x5
  2114                           
  2115                           
  2116                           ; 1 bytes @ 0x5
  2117     0025                     	ds	1
  2118     0026                     ?_init_uart:
  2119     0026                     ?_init_i2c:	
  2120                           ; 1 bytes @ 0x6
  2121                           
  2122     0026                     _change_passwd$431:	
  2123                           ; 1 bytes @ 0x6
  2124                           
  2125     0026                     init_i2c@baud:	
  2126                           ; 2 bytes @ 0x6
  2127                           
  2128     0026                     login@stored_passwd:	
  2129                           ; 4 bytes @ 0x6
  2130                           
  2131     0026                     init_uart@baud:	
  2132                           ; 4 bytes @ 0x6
  2133                           
  2134                           
  2135                           ; 4 bytes @ 0x6
  2136     0026                     	ds	2
  2137     0028                     change_passwd@key:
  2138                           
  2139                           ; 1 bytes @ 0x8
  2140     0028                     	ds	1
  2141     0029                     save_time@hr:
  2142                           
  2143                           ; 1 bytes @ 0x9
  2144     0029                     	ds	1
  2145     002A                     ?_set_time:
  2146     002A                     login@key:	
  2147                           ; 1 bytes @ 0xA
  2148                           
  2149     002A                     set_time@reset_flag:	
  2150                           ; 1 bytes @ 0xA
  2151                           
  2152     002A                     ??_init_uart:	
  2153                           ; 1 bytes @ 0xA
  2154                           
  2155     002A                     ??_init_i2c:	
  2156                           ; 1 bytes @ 0xA
  2157                           
  2158                           
  2159                           ; 1 bytes @ 0xA
  2160     002A                     	ds	1
  2161     002B                     login@j:
  2162     002B                     ??_set_time:	
  2163                           ; 2 bytes @ 0xB
  2164                           
  2165                           
  2166                           ; 1 bytes @ 0xB
  2167     002B                     	ds	3
  2168     002E                     set_time@key:
  2169                           
  2170                           ; 1 bytes @ 0xE
  2171     002E                     	ds	1
  2172     002F                     ??_main:
  2173                           
  2174                           ; 1 bytes @ 0xF
  2175     002F                     	ds	4
  2176     0033                     main@gear:
  2177                           
  2178                           ; 12 bytes @ 0x13
  2179     0033                     	ds	12
  2180     003F                     main@i:
  2181                           
  2182                           ; 2 bytes @ 0x1F
  2183     003F                     	ds	2
  2184     0041                     main@i_174:
  2185                           
  2186                           ; 2 bytes @ 0x21
  2187     0041                     	ds	2
  2188     0043                     main@view:
  2189                           
  2190                           ; 1 bytes @ 0x23
  2191     0043                     	ds	1
  2192     0044                     main@time:
  2193                           
  2194                           ; 1 bytes @ 0x24
  2195     0044                     	ds	1
  2196     0045                     main@menu:
  2197                           
  2198                           ; 1 bytes @ 0x25
  2199     0045                     	ds	1
  2200     0046                     main@event:
  2201                           
  2202                           ; 3 bytes @ 0x26
  2203     0046                     	ds	3
  2204     0049                     main@passwd:
  2205                           
  2206                           ; 1 bytes @ 0x29
  2207     0049                     	ds	1
  2208     004A                     main@gr:
  2209                           
  2210                           ; 1 bytes @ 0x2A
  2211     004A                     	ds	1
  2212     004B                     main@speed:
  2213                           
  2214                           ; 1 bytes @ 0x2B
  2215     004B                     	ds	1
  2216     004C                     main@prev_key:
  2217                           
  2218                           ; 1 bytes @ 0x2C
  2219     004C                     	ds	1
  2220     004D                     main@press_time:
  2221                           
  2222                           ; 2 bytes @ 0x2D
  2223     004D                     	ds	2
  2224     004F                     main@reset_flag:
  2225                           
  2226                           ; 1 bytes @ 0x2F
  2227     004F                     	ds	1
  2228     0050                     main@operation_flag:
  2229                           
  2230                           ; 1 bytes @ 0x30
  2231     0050                     	ds	1
  2232     0051                     main@key:
  2233                           
  2234                           ; 1 bytes @ 0x31
  2235     0051                     	ds	1
  2236                           
  2237                           	psect	maintext
  2238     003E                     __pmaintext:	
  2239 ;;
  2240 ;;Main: autosize = 0, tempsize = 4, incstack = 0, save=0
  2241 ;;
  2242 ;; *************** function _main *****************
  2243 ;; Defined at:
  2244 ;;		line 37 in file "main.c"
  2245 ;; Parameters:    Size  Location     Type
  2246 ;;		None
  2247 ;; Auto vars:     Size  Location     Type
  2248 ;;  i               2   33[BANK0 ] unsigned int 
  2249 ;;  i               2   31[BANK0 ] unsigned int 
  2250 ;;  gear           12   19[BANK0 ] PTR unsigned char [6]
  2251 ;;		 -> STR_6(3), STR_5(3), STR_4(3), STR_3(3), 
  2252 ;;		 -> STR_2(3), STR_1(3), 
  2253 ;;  event           3   38[BANK0 ] unsigned char [3]
  2254 ;;  press_time      2   45[BANK0 ] unsigned int 
  2255 ;;  key             1   49[BANK0 ] unsigned char 
  2256 ;;  operation_fl    1   48[BANK0 ] unsigned char 
  2257 ;;  reset_flag      1   47[BANK0 ] unsigned char 
  2258 ;;  prev_key        1   44[BANK0 ] unsigned char 
  2259 ;;  speed           1   43[BANK0 ] unsigned char 
  2260 ;;  gr              1   42[BANK0 ] unsigned char 
  2261 ;;  passwd          1   41[BANK0 ] unsigned char 
  2262 ;;  menu            1   37[BANK0 ] unsigned char 
  2263 ;;  time            1   36[BANK0 ] unsigned char 
  2264 ;;  view            1   35[BANK0 ] unsigned char 
  2265 ;; Return value:  Size  Location     Type
  2266 ;;                  1    wreg      void 
  2267 ;; Registers used:
  2268 ;;		wreg, fsr0l, fsr0h, status,2, status,0, pclath, btemp1, cstack
  2269 ;; Tracked objects:
  2270 ;;		On entry : B00/0
  2271 ;;		On exit  : 0/0
  2272 ;;		Unchanged: 0/0
  2273 ;; Data sizes:     COMMON   BANK0   BANK1   BANK3   BANK2
  2274 ;;      Params:         0       0       0       0       0
  2275 ;;      Locals:         0      31       0       0       0
  2276 ;;      Temps:          0       4       0       0       0
  2277 ;;      Totals:         0      35       0       0       0
  2278 ;;Total ram usage:       35 bytes
  2279 ;; Hardware stack levels required when called: 7
  2280 ;; This function calls:
  2281 ;;		___lwdiv
  2282 ;;		_change_passwd
  2283 ;;		_clcd_print
  2284 ;;		_clcd_write
  2285 ;;		_clear_log
  2286 ;;		_clear_screen
  2287 ;;		_display_dashboard
  2288 ;;		_download_log
  2289 ;;		_init_config
  2290 ;;		_log_event
  2291 ;;		_login
  2292 ;;		_menu_screen
  2293 ;;		_read_adc
  2294 ;;		_read_digital_keypad
  2295 ;;		_set_time
  2296 ;;		_str_write_ext_eeprom
  2297 ;;		_strcpy
  2298 ;;		_view_log
  2299 ;; This function is called by:
  2300 ;;		Startup code after reset
  2301 ;; This function uses a non-reentrant model
  2302 ;;
  2303                           
  2304     003E                     _main:	
  2305                           ;psect for function _main
  2306                           
  2307     003E                     l4684:	
  2308                           ;incstack = 0
  2309                           ; Regs used in _main: [wreg-fsr0h+status,2+status,0+pclath+btemp1+cstack]
  2310                           
  2311                           
  2312                           ;main.c: 39: 
  2313     003E  3001               	movlw	1
  2314     003F  1283               	bcf	3,5	;RP0=0, select bank0
  2315     0040  1303               	bcf	3,6	;RP1=0, select bank0
  2316     0041  00D0               	movwf	main@operation_flag
  2317     0042                     l4686:
  2318     0042  01CF               	clrf	main@reset_flag
  2319     0043                     l4688:
  2320                           
  2321                           ;main.c: 41: 
  2322     0043  1683               	bsf	3,5	;RP0=1, select bank1
  2323     0044  1303               	bcf	3,6	;RP1=0, select bank1
  2324     0045  085D               	movf	main@F1224^(0+128),w
  2325     0046  1283               	bcf	3,5	;RP0=0, select bank0
  2326     0047  1303               	bcf	3,6	;RP1=0, select bank0
  2327     0048  00C6               	movwf	main@event
  2328     0049  1683               	bsf	3,5	;RP0=1, select bank1
  2329     004A  1303               	bcf	3,6	;RP1=0, select bank1
  2330     004B  085E               	movf	(main@F1224+1)^(0+128),w
  2331     004C  1283               	bcf	3,5	;RP0=0, select bank0
  2332     004D  1303               	bcf	3,6	;RP1=0, select bank0
  2333     004E  00C7               	movwf	main@event+1
  2334     004F  1683               	bsf	3,5	;RP0=1, select bank1
  2335     0050  1303               	bcf	3,6	;RP1=0, select bank1
  2336     0051  085F               	movf	(main@F1224+2)^(0+128),w
  2337     0052  1283               	bcf	3,5	;RP0=0, select bank0
  2338     0053  1303               	bcf	3,6	;RP1=0, select bank0
  2339     0054  00C8               	movwf	main@event+2
  2340     0055                     l4690:
  2341     0055                     l4692:
  2342                           
  2343                           ;main.c: 44: ;main.c: 46:     log_event(event, speed);
  2344     0055  30C7               	movlw	main@F1231& (0+255)
  2345     0056  0084               	movwf	4
  2346     0057  3033               	movlw	low main@gear
  2347     0058  00AF               	movwf	??_main
  2348     0059  300C               	movlw	12
  2349     005A  00B0               	movwf	??_main+1
  2350     005B                     u5070:
  2351     005B  1383               	bcf	3,7	;select IRP bank1
  2352     005C  0800               	movf	0,w
  2353     005D  00B1               	movwf	??_main+2
  2354     005E  0A04               	incf	4,w
  2355     005F  00B2               	movwf	??_main+3
  2356     0060  082F               	movf	??_main,w
  2357     0061  0084               	movwf	4
  2358     0062  0831               	movf	??_main+2,w
  2359     0063  0080               	movwf	0
  2360     0064  0A04               	incf	4,w
  2361     0065  00AF               	movwf	??_main
  2362     0066  0832               	movf	??_main+3,w
  2363     0067  0084               	movwf	4
  2364     0068  0BB0               	decfsz	??_main+1,f
  2365     0069  285B               	goto	u5070
  2366     006A                     l4694:
  2367                           
  2368                           ;main.c: 48: 
  2369     006A  01CA               	clrf	main@gr
  2370     006B                     l4696:
  2371                           
  2372                           ;main.c: 50: ;main.c: 51:     while (1) {
  2373     006B  303F               	movlw	63
  2374     006C  00CC               	movwf	main@prev_key
  2375     006D                     l4698:
  2376                           
  2377                           ;main.c: 53: 
  2378     006D  01CD               	clrf	main@press_time
  2379     006E  01CE               	clrf	main@press_time+1
  2380     006F                     l4700:
  2381                           
  2382                           ;main.c: 56:         if (speed >= 100)
  2383     006F  160A  118A  258C  120A  118A  	fcall	_init_config
  2384     0074                     l4702:
  2385                           
  2386                           ;main.c: 59:         }
  2387     0074  3046               	movlw	(low (main@event| 0))& (0+255)
  2388     0075  1283               	bcf	3,5	;RP0=0, select bank0
  2389     0076  1303               	bcf	3,6	;RP1=0, select bank0
  2390     0077  00A1               	movwf	log_event@event
  2391     0078  01A2               	clrf	log_event@speed
  2392     0079  160A  118A  27A6  120A  118A  	fcall	_log_event
  2393     007E                     l4704:
  2394                           
  2395                           ;main.c: 62:         if (operation_flag == 0x01 || operation_flag == 0x02 || operation_f
      +                          lag == 0x08)
  2396     007E  306D               	movlw	low (STR_7| (0+32768))
  2397     007F  00F7               	movwf	str_write_ext_eeprom@data
  2398     0080  3091               	movlw	high (STR_7| (0+32768))
  2399     0081  00F8               	movwf	str_write_ext_eeprom@data+1
  2400     0082  3000               	movlw	0
  2401     0083  160A  118A  23E5  120A  118A  	fcall	_str_write_ext_eeprom
  2402     0088                     l4706:
  2403                           
  2404                           ;main.c: 67:         else if (operation_flag == 0x03 || operation_flag == 0x04 || operat
      +                          ion_flag == 0x07)
  2405     0088  300A               	movlw	10
  2406     0089  00F6               	movwf	___lwdiv@divisor
  2407     008A  3000               	movlw	0
  2408     008B  00F7               	movwf	___lwdiv@divisor+1
  2409     008C  160A  118A  2289  120A  118A  	fcall	_read_adc
  2410     0091  0873               	movf	?_read_adc+1,w
  2411     0092  00F9               	movwf	___lwdiv@dividend+1
  2412     0093  0872               	movf	?_read_adc,w
  2413     0094  00F8               	movwf	___lwdiv@dividend
  2414     0095  160A  118A  25C6  120A  118A  	fcall	___lwdiv
  2415     009A  0876               	movf	?___lwdiv,w
  2416     009B  1283               	bcf	3,5	;RP0=0, select bank0
  2417     009C  1303               	bcf	3,6	;RP1=0, select bank0
  2418     009D  00CB               	movwf	main@speed
  2419     009E                     l4708:
  2420                           
  2421                           ;main.c: 69:             key = read_digital_keypad(0);
  2422     009E  3064               	movlw	100
  2423     009F  024B               	subwf	main@speed,w
  2424     00A0  1C03               	skipc
  2425     00A1  28A3               	goto	u5081
  2426     00A2  28A4               	goto	u5080
  2427     00A3                     u5081:
  2428     00A3  28A6               	goto	l4712
  2429     00A4                     u5080:
  2430     00A4                     l4710:
  2431                           
  2432                           ;main.c: 70:             for (unsigned int i = 20000; i--; );;main.c: 71:         }
  2433     00A4  3063               	movlw	99
  2434     00A5  00CB               	movwf	main@speed
  2435     00A6                     l4712:
  2436                           
  2437                           ;main.c: 75:         {
  2438     00A6  0350               	decf	main@operation_flag,w
  2439     00A7  1903               	btfsc	3,2
  2440     00A8  28AA               	goto	u5091
  2441     00A9  28AB               	goto	u5090
  2442     00AA                     u5091:
  2443     00AA  28B7               	goto	l4718
  2444     00AB                     u5090:
  2445     00AB                     l4714:
  2446     00AB  3002               	movlw	2
  2447     00AC  0650               	xorwf	main@operation_flag,w
  2448     00AD  1903               	btfsc	3,2
  2449     00AE  28B0               	goto	u5101
  2450     00AF  28B1               	goto	u5100
  2451     00B0                     u5101:
  2452     00B0  28B7               	goto	l4718
  2453     00B1                     u5100:
  2454     00B1                     l4716:
  2455     00B1  3008               	movlw	8
  2456     00B2  0650               	xorwf	main@operation_flag,w
  2457     00B3  1D03               	btfss	3,2
  2458     00B4  28B6               	goto	u5111
  2459     00B5  28B7               	goto	u5110
  2460     00B6                     u5111:
  2461     00B6  28D3               	goto	l4724
  2462     00B7                     u5110:
  2463     00B7                     l4718:
  2464                           
  2465                           ;main.c: 76:             strcpy(event, "C ");;main.c: 77:             log_event(event, s
      +                          peed);;
  2466     00B7  3001               	movlw	1
  2467     00B8  160A  118A  23BB  120A  118A  	fcall	_read_digital_keypad
  2468     00BD  1283               	bcf	3,5	;RP0=0, select bank0
  2469     00BE  1303               	bcf	3,6	;RP1=0, select bank0
  2470     00BF  00D1               	movwf	main@key
  2471     00C0                     l4720:
  2472                           
  2473                           ;main.c: 78:         }
  2474     00C0  302C               	movlw	44
  2475     00C1  00BF               	movwf	main@i
  2476     00C2  3001               	movlw	1
  2477     00C3  00C0               	movwf	main@i+1
  2478     00C4                     l4722:
  2479     00C4  3001               	movlw	1
  2480     00C5  02BF               	subwf	main@i,f
  2481     00C6  3000               	movlw	0
  2482     00C7  1C03               	skipc
  2483     00C8  03C0               	decf	main@i+1,f
  2484     00C9  02C0               	subwf	main@i+1,f
  2485     00CA  0A3F               	incf	main@i,w
  2486     00CB  1D03               	skipz
  2487     00CC  28D1               	goto	u5121
  2488     00CD  0A40               	incf	main@i+1,w
  2489     00CE  1D03               	btfss	3,2
  2490     00CF  28D1               	goto	u5121
  2491     00D0  28D2               	goto	u5120
  2492     00D1                     u5121:
  2493     00D1  28C4               	goto	l4722
  2494     00D2                     u5120:
  2495     00D2  2900               	goto	l4736
  2496     00D3                     l4724:
  2497     00D3  3003               	movlw	3
  2498     00D4  0650               	xorwf	main@operation_flag,w
  2499     00D5  1903               	btfsc	3,2
  2500     00D6  28D8               	goto	u5131
  2501     00D7  28D9               	goto	u5130
  2502     00D8                     u5131:
  2503     00D8  28E5               	goto	l4730
  2504     00D9                     u5130:
  2505     00D9                     l4726:
  2506     00D9  3004               	movlw	4
  2507     00DA  0650               	xorwf	main@operation_flag,w
  2508     00DB  1903               	btfsc	3,2
  2509     00DC  28DE               	goto	u5141
  2510     00DD  28DF               	goto	u5140
  2511     00DE                     u5141:
  2512     00DE  28E5               	goto	l4730
  2513     00DF                     u5140:
  2514     00DF                     l4728:
  2515     00DF  3007               	movlw	7
  2516     00E0  0650               	xorwf	main@operation_flag,w
  2517     00E1  1D03               	btfss	3,2
  2518     00E2  28E4               	goto	u5151
  2519     00E3  28E5               	goto	u5150
  2520     00E4                     u5151:
  2521     00E4  2900               	goto	l4736
  2522     00E5                     u5150:
  2523     00E5                     l4730:
  2524                           
  2525                           ;main.c: 81:         {;main.c: 82:             strcpy(event, gear[gr]);
  2526     00E5  3000               	movlw	0
  2527     00E6  160A  118A  23BB  120A  118A  	fcall	_read_digital_keypad
  2528     00EB  1283               	bcf	3,5	;RP0=0, select bank0
  2529     00EC  1303               	bcf	3,6	;RP1=0, select bank0
  2530     00ED  00D1               	movwf	main@key
  2531     00EE                     l4732:
  2532                           
  2533                           ;main.c: 83:             gr++;
  2534     00EE  3020               	movlw	32
  2535     00EF  00C1               	movwf	main@i_174
  2536     00F0  304E               	movlw	78
  2537     00F1  00C2               	movwf	main@i_174+1
  2538     00F2                     l4734:
  2539     00F2  3001               	movlw	1
  2540     00F3  02C1               	subwf	main@i_174,f
  2541     00F4  3000               	movlw	0
  2542     00F5  1C03               	skipc
  2543     00F6  03C2               	decf	main@i_174+1,f
  2544     00F7  02C2               	subwf	main@i_174+1,f
  2545     00F8  0A41               	incf	main@i_174,w
  2546     00F9  1D03               	skipz
  2547     00FA  28FF               	goto	u5161
  2548     00FB  0A42               	incf	main@i_174+1,w
  2549     00FC  1D03               	btfss	3,2
  2550     00FD  28FF               	goto	u5161
  2551     00FE  2900               	goto	u5160
  2552     00FF                     u5161:
  2553     00FF  28F2               	goto	l4734
  2554     0100                     u5160:
  2555     0100                     l4736:
  2556                           
  2557                           ;main.c: 87:         else if (key == 0x3B && gr > 0)
  2558     0100  303E               	movlw	62
  2559     0101  0651               	xorwf	main@key,w
  2560     0102  1D03               	btfss	3,2
  2561     0103  2905               	goto	u5171
  2562     0104  2906               	goto	u5170
  2563     0105                     u5171:
  2564     0105  291D               	goto	l4740
  2565     0106                     u5170:
  2566     0106                     l4738:
  2567                           
  2568                           ;main.c: 88:         {;main.c: 89:             gr--;
  2569     0106  3046               	movlw	(low (main@event| 0))& (0+255)
  2570     0107  00F2               	movwf	strcpy@dest
  2571     0108  3075               	movlw	low (STR_8| (0+32768))
  2572     0109  00F3               	movwf	strcpy@src
  2573     010A  3091               	movlw	high (STR_8| (0+32768))
  2574     010B  00F4               	movwf	strcpy@src+1
  2575     010C  160A  118A  234E  120A  118A  	fcall	_strcpy
  2576                           
  2577                           ;main.c: 90:             strcpy(event, gear[gr]);
  2578     0111  3046               	movlw	(low (main@event| 0))& (0+255)
  2579     0112  1283               	bcf	3,5	;RP0=0, select bank0
  2580     0113  1303               	bcf	3,6	;RP1=0, select bank0
  2581     0114  00A1               	movwf	log_event@event
  2582     0115  084B               	movf	main@speed,w
  2583     0116  00A2               	movwf	log_event@speed
  2584     0117  160A  118A  27A6  120A  118A  	fcall	_log_event
  2585                           
  2586                           ;main.c: 91:             log_event(event, speed);
  2587     011C  2C18               	goto	l5054
  2588     011D                     l4740:
  2589     011D  303D               	movlw	61
  2590     011E  0651               	xorwf	main@key,w
  2591     011F  1D03               	btfss	3,2
  2592     0120  2922               	goto	u5181
  2593     0121  2923               	goto	u5180
  2594     0122                     u5181:
  2595     0122  294C               	goto	l4750
  2596     0123                     u5180:
  2597     0123                     l4742:
  2598     0123  3006               	movlw	6
  2599     0124  024A               	subwf	main@gr,w
  2600     0125  1803               	skipnc
  2601     0126  2928               	goto	u5191
  2602     0127  2929               	goto	u5190
  2603     0128                     u5191:
  2604     0128  294C               	goto	l4750
  2605     0129                     u5190:
  2606     0129                     l4744:
  2607                           
  2608                           ;main.c: 94:         else if (operation_flag == 0x01 && (key == 0x37 || key == 0x2F));ma
      +                          in.c: 95:         {
  2609     0129  3046               	movlw	(low (main@event| 0))& (0+255)
  2610     012A  00F2               	movwf	strcpy@dest
  2611     012B  084A               	movf	main@gr,w
  2612     012C  00AF               	movwf	??_main
  2613     012D  072F               	addwf	??_main,w
  2614     012E  3E33               	addlw	(low (main@gear| 0))& (0+255)
  2615     012F  0084               	movwf	4
  2616     0130  1383               	bcf	3,7	;select IRP bank0
  2617     0131  0800               	movf	0,w
  2618     0132  00F3               	movwf	strcpy@src
  2619     0133  0A84               	incf	4,f
  2620     0134  0800               	movf	0,w
  2621     0135  0384               	decf	4,f
  2622     0136  00F4               	movwf	strcpy@src+1
  2623     0137  160A  118A  234E  120A  118A  	fcall	_strcpy
  2624     013C                     l4746:
  2625                           
  2626                           ;main.c: 96:             operation_flag = 0x02;
  2627     013C  3001               	movlw	1
  2628     013D  1283               	bcf	3,5	;RP0=0, select bank0
  2629     013E  1303               	bcf	3,6	;RP1=0, select bank0
  2630     013F  07CA               	addwf	main@gr,f
  2631     0140                     l4748:
  2632                           
  2633                           ;main.c: 97:             reset_flag = 0x11;
  2634     0140  3046               	movlw	(low (main@event| 0))& (0+255)
  2635     0141  1283               	bcf	3,5	;RP0=0, select bank0
  2636     0142  1303               	bcf	3,6	;RP1=0, select bank0
  2637     0143  00A1               	movwf	log_event@event
  2638     0144  084B               	movf	main@speed,w
  2639     0145  00A2               	movwf	log_event@speed
  2640     0146  160A  118A  27A6  120A  118A  	fcall	_log_event
  2641                           
  2642                           ;main.c: 98:             clear_screen();
  2643     014B  2C18               	goto	l5054
  2644     014C                     l4750:
  2645     014C  303B               	movlw	59
  2646     014D  0651               	xorwf	main@key,w
  2647     014E  1D03               	btfss	3,2
  2648     014F  2951               	goto	u5201
  2649     0150  2952               	goto	u5200
  2650     0151                     u5201:
  2651     0151  296D               	goto	l4760
  2652     0152                     u5200:
  2653     0152                     l4752:
  2654     0152  084A               	movf	main@gr,w
  2655     0153  1903               	btfsc	3,2
  2656     0154  2956               	goto	u5211
  2657     0155  2957               	goto	u5210
  2658     0156                     u5211:
  2659     0156  296D               	goto	l4760
  2660     0157                     u5210:
  2661     0157                     l4754:
  2662                           
  2663                           ;main.c: 101:             clcd_write((0xC0 + 4), 0);;main.c: 102:             clcd_write
      +                          (0x0F, 0);
  2664     0157  3001               	movlw	1
  2665     0158  02CA               	subwf	main@gr,f
  2666     0159                     l4756:
  2667                           
  2668                           ;main.c: 103: 
  2669     0159  3046               	movlw	(low (main@event| 0))& (0+255)
  2670     015A  00F2               	movwf	strcpy@dest
  2671     015B  084A               	movf	main@gr,w
  2672     015C  00AF               	movwf	??_main
  2673     015D  072F               	addwf	??_main,w
  2674     015E  3E33               	addlw	(low (main@gear| 0))& (0+255)
  2675     015F  0084               	movwf	4
  2676     0160  1383               	bcf	3,7	;select IRP bank0
  2677     0161  0800               	movf	0,w
  2678     0162  00F3               	movwf	strcpy@src
  2679     0163  0A84               	incf	4,f
  2680     0164  0800               	movf	0,w
  2681     0165  0384               	decf	4,f
  2682     0166  00F4               	movwf	strcpy@src+1
  2683     0167  160A  118A  234E  120A  118A  	fcall	_strcpy
  2684     016C  2940               	goto	l4748
  2685     016D                     l4760:
  2686     016D  0350               	decf	main@operation_flag,w
  2687     016E  1D03               	btfss	3,2
  2688     016F  2971               	goto	u5221
  2689     0170  2972               	goto	u5220
  2690     0171                     u5221:
  2691     0171  29A4               	goto	l4776
  2692     0172                     u5220:
  2693     0172                     l4762:
  2694     0172  3037               	movlw	55
  2695     0173  0651               	xorwf	main@key,w
  2696     0174  1903               	btfsc	3,2
  2697     0175  2977               	goto	u5231
  2698     0176  2978               	goto	u5230
  2699     0177                     u5231:
  2700     0177  297E               	goto	l89
  2701     0178                     u5230:
  2702     0178                     l4764:
  2703     0178  302F               	movlw	47
  2704     0179  0651               	xorwf	main@key,w
  2705     017A  1D03               	btfss	3,2
  2706     017B  297D               	goto	u5241
  2707     017C  297E               	goto	u5240
  2708     017D                     u5241:
  2709     017D  29A4               	goto	l4776
  2710     017E                     u5240:
  2711     017E                     l89:
  2712                           
  2713                           ;main.c: 108:         {;main.c: 109:             switch(menu)
  2714     017E  3002               	movlw	2
  2715     017F  00D0               	movwf	main@operation_flag
  2716                           
  2717                           ;main.c: 110:             {
  2718     0180  3011               	movlw	17
  2719     0181  00CF               	movwf	main@reset_flag
  2720     0182                     l4766:
  2721                           
  2722                           ;main.c: 111:                 case 0:
  2723     0182  160A  118A  2266  120A  118A  	fcall	_clear_screen
  2724     0187                     l4768:
  2725                           
  2726                           ;main.c: 113:                     operation_flag = 0x04;
  2727     0187  309C               	movlw	low (STR_9| (0+32768))
  2728     0188  00F6               	movwf	clcd_print@str
  2729     0189  3090               	movlw	high (STR_9| (0+32768))
  2730     018A  00F7               	movwf	clcd_print@str+1
  2731     018B  3081               	movlw	129
  2732     018C  00F8               	movwf	clcd_print@addr
  2733     018D  160A  118A  2494  120A  118A  	fcall	_clcd_print
  2734     0192                     l4770:
  2735                           
  2736                           ;main.c: 114:                     reset_flag = 0x33;
  2737     0192  01F2               	clrf	clcd_write@mode
  2738     0193  30C4               	movlw	196
  2739     0194  160A  118A  230D  120A  118A  	fcall	_clcd_write
  2740     0199                     l4772:
  2741                           
  2742                           ;main.c: 115:                     break;
  2743     0199  01F2               	clrf	clcd_write@mode
  2744     019A  300F               	movlw	15
  2745     019B  160A  118A  230D  120A  118A  	fcall	_clcd_write
  2746     01A0                     l4774:
  2747                           
  2748                           ;main.c: 117: 
  2749     01A0  1283               	bcf	3,5	;RP0=0, select bank0
  2750     01A1  1303               	bcf	3,6	;RP1=0, select bank0
  2751     01A2  1512               	bsf	18,2	;volatile
  2752                           
  2753                           ;main.c: 118:                     operation_flag = 0x05;
  2754     01A3  2C18               	goto	l5054
  2755     01A4                     l4776:
  2756     01A4  3003               	movlw	3
  2757     01A5  0650               	xorwf	main@operation_flag,w
  2758     01A6  1D03               	btfss	3,2
  2759     01A7  29A9               	goto	u5251
  2760     01A8  29AA               	goto	u5250
  2761     01A9                     u5251:
  2762     01A9  29EF               	goto	l4798
  2763     01AA                     u5250:
  2764     01AA                     l4778:
  2765     01AA  3002               	movlw	2
  2766     01AB  066F               	xorwf	_sw_p,w
  2767     01AC  1D03               	btfss	3,2
  2768     01AD  29AF               	goto	u5261
  2769     01AE  29B0               	goto	u5260
  2770     01AF                     u5261:
  2771     01AF  29EF               	goto	l4798
  2772     01B0                     u5260:
  2773     01B0                     l4780:
  2774     01B0  3037               	movlw	55
  2775     01B1  0651               	xorwf	main@key,w
  2776     01B2  1D03               	btfss	3,2
  2777     01B3  29B5               	goto	u5271
  2778     01B4  29B6               	goto	u5270
  2779     01B5                     u5271:
  2780     01B5  29EF               	goto	l4798
  2781     01B6                     u5270:
  2782     01B6  29CE               	goto	l4786
  2783     01B7                     l93:	
  2784                           ;main.c: 123:                     operation_flag = 0x06;;main.c: 124:                   
      +                            break;
  2785                           
  2786                           
  2787                           ;main.c: 126: 
  2788     01B7  3004               	movlw	4
  2789     01B8  00D0               	movwf	main@operation_flag
  2790                           
  2791                           ;main.c: 127:                     operation_flag = 0x07;
  2792     01B9  3033               	movlw	51
  2793     01BA  00CF               	movwf	main@reset_flag
  2794                           
  2795                           ;main.c: 128:                     reset_flag = 0x55;
  2796     01BB  29DF               	goto	l4788
  2797     01BC                     l95:	
  2798                           ;main.c: 129:                     break;
  2799                           
  2800                           
  2801                           ;main.c: 131: 
  2802     01BC  3005               	movlw	5
  2803     01BD  00D0               	movwf	main@operation_flag
  2804                           
  2805                           ;main.c: 132:                     operation_flag = 0x08;
  2806     01BE  3044               	movlw	68
  2807     01BF  00CF               	movwf	main@reset_flag
  2808                           
  2809                           ;main.c: 133:                     reset_flag = 0x66;
  2810     01C0  29DF               	goto	l4788
  2811     01C1                     l96:	
  2812                           ;main.c: 134:                     break;
  2813                           
  2814                           
  2815                           ;main.c: 136:             clear_screen();
  2816     01C1  3006               	movlw	6
  2817     01C2  00D0               	movwf	main@operation_flag
  2818                           
  2819                           ;main.c: 137:             press_time = 0;
  2820     01C3  29DF               	goto	l4788
  2821     01C4                     l97:	
  2822                           ;main.c: 138:             key = prev_key = 0x3F;
  2823                           
  2824                           
  2825                           ;main.c: 140: 
  2826     01C4  3007               	movlw	7
  2827     01C5  00D0               	movwf	main@operation_flag
  2828                           
  2829                           ;main.c: 141:             TMR2ON = 0;
  2830     01C6  3055               	movlw	85
  2831     01C7  00CF               	movwf	main@reset_flag
  2832                           
  2833                           ;main.c: 142:         }
  2834     01C8  29DF               	goto	l4788
  2835     01C9                     l98:	
  2836                           ;main.c: 143: 
  2837                           
  2838                           
  2839                           ;main.c: 145:         {
  2840     01C9  3008               	movlw	8
  2841     01CA  00D0               	movwf	main@operation_flag
  2842                           
  2843                           ;main.c: 146:             operation_flag = 0x01;
  2844     01CB  3066               	movlw	102
  2845     01CC  00CF               	movwf	main@reset_flag
  2846                           
  2847                           ;main.c: 147:             clear_screen();
  2848     01CD  29DF               	goto	l4788
  2849     01CE                     l4786:
  2850     01CE  0845               	movf	main@menu,w
  2851                           
  2852                           ; Switch size 1, requested type "simple"
  2853                           ; Number of cases is 5, Range of values is 0 to 4
  2854                           ; switch strategies available:
  2855                           ; Name         Instructions Cycles
  2856                           ; simple_byte           16     9 (average)
  2857                           ; direct_byte           23     8 (fixed)
  2858                           ; jumptable            260     6 (fixed)
  2859                           ;	Chosen strategy is simple_byte
  2860     01CF  3A00               	xorlw	0	; case 0
  2861     01D0  1903               	skipnz
  2862     01D1  29B7               	goto	l93
  2863     01D2  3A01               	xorlw	1	; case 1
  2864     01D3  1903               	skipnz
  2865     01D4  29BC               	goto	l95
  2866     01D5  3A03               	xorlw	3	; case 2
  2867     01D6  1903               	skipnz
  2868     01D7  29C1               	goto	l96
  2869     01D8  3A01               	xorlw	1	; case 3
  2870     01D9  1903               	skipnz
  2871     01DA  29C4               	goto	l97
  2872     01DB  3A07               	xorlw	7	; case 4
  2873     01DC  1903               	skipnz
  2874     01DD  29C9               	goto	l98
  2875     01DE  29DF               	goto	l4788
  2876     01DF                     l4788:
  2877                           
  2878                           ;main.c: 149:             key = prev_key = 0x3F;
  2879     01DF  160A  118A  2266  120A  118A  	fcall	_clear_screen
  2880     01E4                     l4790:
  2881                           
  2882                           ;main.c: 150:             sw_p = 0x03;
  2883     01E4  1283               	bcf	3,5	;RP0=0, select bank0
  2884     01E5  1303               	bcf	3,6	;RP1=0, select bank0
  2885     01E6  01CD               	clrf	main@press_time
  2886     01E7  01CE               	clrf	main@press_time+1
  2887     01E8                     l4792:
  2888                           
  2889                           ;main.c: 151: 
  2890     01E8  303F               	movlw	63
  2891     01E9  00CC               	movwf	main@prev_key
  2892     01EA  00D1               	movwf	main@key
  2893     01EB                     l4794:
  2894                           
  2895                           ;main.c: 152:             TMR2ON = 0;
  2896     01EB  3003               	movlw	3
  2897     01EC  00EF               	movwf	_sw_p
  2898     01ED                     l4796:
  2899                           
  2900                           ;main.c: 154: 
  2901     01ED  1112               	bcf	18,2	;volatile
  2902                           
  2903                           ;main.c: 155:         switch (operation_flag)
  2904     01EE  2C18               	goto	l5054
  2905     01EF                     l4798:
  2906     01EF  3003               	movlw	3
  2907     01F0  0650               	xorwf	main@operation_flag,w
  2908     01F1  1D03               	btfss	3,2
  2909     01F2  29F4               	goto	u5281
  2910     01F3  29F5               	goto	u5280
  2911     01F4                     u5281:
  2912     01F4  2C18               	goto	l5054
  2913     01F5                     u5280:
  2914     01F5                     l4800:
  2915     01F5  3002               	movlw	2
  2916     01F6  066F               	xorwf	_sw_p,w
  2917     01F7  1D03               	btfss	3,2
  2918     01F8  29FA               	goto	u5291
  2919     01F9  29FB               	goto	u5290
  2920     01FA                     u5291:
  2921     01FA  2C18               	goto	l5054
  2922     01FB                     u5290:
  2923     01FB                     l4802:
  2924     01FB  302F               	movlw	47
  2925     01FC  0651               	xorwf	main@key,w
  2926     01FD  1D03               	btfss	3,2
  2927     01FE  2A00               	goto	u5301
  2928     01FF  2A01               	goto	u5300
  2929     0200                     u5301:
  2930     0200  2C18               	goto	l5054
  2931     0201                     u5300:
  2932     0201                     l4804:
  2933                           
  2934                           ;main.c: 158:                 display_dashboard(event, speed);;main.c: 159:             
      +                              break;
  2935     0201  3001               	movlw	1
  2936     0202  00D0               	movwf	main@operation_flag
  2937     0203  29DF               	goto	l4788
  2938     0204                     l4816:
  2939                           
  2940                           ;main.c: 171:                         clear_screen();
  2941     0204  3046               	movlw	(low (main@event| 0))& (0+255)
  2942     0205  00A2               	movwf	display_dashboard@event
  2943     0206  084B               	movf	main@speed,w
  2944     0207  00A3               	movwf	display_dashboard@speed
  2945     0208  160A  118A  26A4  120A  118A  	fcall	_display_dashboard
  2946                           
  2947                           ;main.c: 172: 
  2948     020D  2C34               	goto	l5056
  2949     020E                     l4818:
  2950                           
  2951                           ;main.c: 177:                 break;
  2952     020E  160A  118A  2266  120A  118A  	fcall	_clear_screen
  2953     0213                     l4820:
  2954                           
  2955                           ;main.c: 179:                 if (key == 0x37 || key == 0x2F)
  2956     0213  3001               	movlw	1
  2957     0214  1283               	bcf	3,5	;RP0=0, select bank0
  2958     0215  1303               	bcf	3,6	;RP1=0, select bank0
  2959     0216  00D0               	movwf	main@operation_flag
  2960                           
  2961                           ;main.c: 180:                 {
  2962     0217  01F2               	clrf	clcd_write@mode
  2963     0218  300C               	movlw	12
  2964     0219  160A  118A  230D  120A  118A  	fcall	_clcd_write
  2965     021E                     l4822:
  2966                           
  2967                           ;main.c: 181:                     prev_key = key;
  2968     021E  1283               	bcf	3,5	;RP0=0, select bank0
  2969     021F  1303               	bcf	3,6	;RP1=0, select bank0
  2970     0220  1112               	bcf	18,2	;volatile
  2971                           
  2972                           ;main.c: 182:                     if (++press_time >= 10)
  2973     0221  2C34               	goto	l5056
  2974     0222                     l4824:
  2975                           
  2976                           ;main.c: 184:                 }
  2977     0222  160A  118A  2266  120A  118A  	fcall	_clear_screen
  2978     0227                     l4826:
  2979                           
  2980                           ;main.c: 186:                 {
  2981     0227  3003               	movlw	3
  2982     0228  1283               	bcf	3,5	;RP0=0, select bank0
  2983     0229  1303               	bcf	3,6	;RP1=0, select bank0
  2984     022A  00D0               	movwf	main@operation_flag
  2985     022B                     l4828:
  2986                           
  2987                           ;main.c: 187:                     sw_p = 0x01;
  2988     022B  3022               	movlw	34
  2989     022C  00CF               	movwf	main@reset_flag
  2990                           
  2991                           ;main.c: 188:                     key = prev_key;
  2992     022D  2888               	goto	l4706
  2993     022E                     l4832:
  2994     022E  084F               	movf	main@reset_flag,w
  2995     022F  00A2               	movwf	login@reset_flag
  2996     0230  0851               	movf	main@key,w
  2997     0231  120A  158A  2664  120A  118A  	fcall	_login
  2998                           
  2999                           ; Switch size 1, requested type "simple"
  3000                           ; Number of cases is 2, Range of values is 15 to 240
  3001                           ; switch strategies available:
  3002                           ; Name         Instructions Cycles
  3003                           ; simple_byte            7     4 (average)
  3004                           ; jumptable            263     9 (fixed)
  3005                           ;	Chosen strategy is simple_byte
  3006     0236  3A0F               	xorlw	15	; case 15
  3007     0237  1903               	skipnz
  3008     0238  2A22               	goto	l4824
  3009     0239  3AFF               	xorlw	255	; case 240
  3010     023A  1903               	skipnz
  3011     023B  2A0E               	goto	l4818
  3012     023C  2C34               	goto	l5056
  3013     023D                     l4834:
  3014                           
  3015                           ;main.c: 192:                 else
  3016     023D  3037               	movlw	55
  3017     023E  0651               	xorwf	main@key,w
  3018     023F  1903               	btfsc	3,2
  3019     0240  2A42               	goto	u5311
  3020     0241  2A43               	goto	u5310
  3021     0242                     u5311:
  3022     0242  2A49               	goto	l4838
  3023     0243                     u5310:
  3024     0243                     l4836:
  3025     0243  302F               	movlw	47
  3026     0244  0651               	xorwf	main@key,w
  3027     0245  1D03               	btfss	3,2
  3028     0246  2A48               	goto	u5321
  3029     0247  2A49               	goto	u5320
  3030     0248                     u5321:
  3031     0248  2A5D               	goto	l4842
  3032     0249                     u5320:
  3033     0249                     l4838:
  3034                           
  3035                           ;main.c: 193:                 {;main.c: 194:                     press_time = 0;
  3036     0249  0851               	movf	main@key,w
  3037     024A  00CC               	movwf	main@prev_key
  3038                           
  3039                           ;main.c: 195:                 }
  3040     024B  3001               	movlw	1
  3041     024C  07CD               	addwf	main@press_time,f
  3042     024D  1803               	skipnc
  3043     024E  0ACE               	incf	main@press_time+1,f
  3044     024F  3000               	movlw	0
  3045     0250  07CE               	addwf	main@press_time+1,f
  3046     0251  3000               	movlw	0
  3047     0252  024E               	subwf	main@press_time+1,w
  3048     0253  300A               	movlw	10
  3049     0254  1903               	skipnz
  3050     0255  024D               	subwf	main@press_time,w
  3051     0256  1C03               	skipc
  3052     0257  2A59               	goto	u5331
  3053     0258  2A5A               	goto	u5330
  3054     0259                     u5331:
  3055     0259  2A74               	goto	l4856
  3056     025A                     u5330:
  3057     025A                     l4840:
  3058                           
  3059                           ;main.c: 196: 
  3060     025A  3002               	movlw	2
  3061     025B  00EF               	movwf	_sw_p
  3062     025C  2A74               	goto	l4856
  3063     025D                     l4842:
  3064     025D  084D               	movf	main@press_time,w
  3065     025E  044E               	iorwf	main@press_time+1,w
  3066     025F  1903               	btfsc	3,2
  3067     0260  2A62               	goto	u5341
  3068     0261  2A63               	goto	u5340
  3069     0262                     u5341:
  3070     0262  2A72               	goto	l4852
  3071     0263                     u5340:
  3072     0263                     l4844:
  3073     0263  3000               	movlw	0
  3074     0264  024E               	subwf	main@press_time+1,w
  3075     0265  300A               	movlw	10
  3076     0266  1903               	skipnz
  3077     0267  024D               	subwf	main@press_time,w
  3078     0268  1803               	skipnc
  3079     0269  2A6B               	goto	u5351
  3080     026A  2A6C               	goto	u5350
  3081     026B                     u5351:
  3082     026B  2A72               	goto	l4852
  3083     026C                     u5350:
  3084     026C                     l4846:
  3085                           
  3086                           ;main.c: 199:                 {;main.c: 200:                     menu = menu_screen(key,
      +                           reset_flag);
  3087     026C  3001               	movlw	1
  3088     026D  00EF               	movwf	_sw_p
  3089     026E                     l4848:
  3090                           
  3091                           ;main.c: 201:                     sw_p = 0x03;
  3092     026E  084C               	movf	main@prev_key,w
  3093     026F  00D1               	movwf	main@key
  3094     0270                     l4850:
  3095                           
  3096                           ;main.c: 202:                 }
  3097     0270  303F               	movlw	63
  3098     0271  00CC               	movwf	main@prev_key
  3099     0272                     l4852:
  3100                           
  3101                           ;main.c: 203:                 else if (sw_p == 0x03)
  3102     0272  01CD               	clrf	main@press_time
  3103     0273  01CE               	clrf	main@press_time+1
  3104     0274                     l4856:	
  3105                           ;main.c: 204:                 {
  3106                           
  3107                           
  3108                           ;main.c: 211:                     clear_screen();
  3109     0274  036F               	decf	_sw_p,w
  3110     0275  1D03               	btfss	3,2
  3111     0276  2A78               	goto	u5361
  3112     0277  2A79               	goto	u5360
  3113     0278                     u5361:
  3114     0278  2A87               	goto	l4862
  3115     0279                     u5360:
  3116     0279                     l4858:
  3117                           
  3118                           ;main.c: 212: ;main.c: 213:                     operation_flag = 0x01;
  3119     0279  084F               	movf	main@reset_flag,w
  3120     027A  00A2               	movwf	menu_screen@reset_flag
  3121     027B  0851               	movf	main@key,w
  3122     027C  120A  158A  23D4  120A  118A  	fcall	_menu_screen
  3123     0281  1283               	bcf	3,5	;RP0=0, select bank0
  3124     0282  1303               	bcf	3,6	;RP1=0, select bank0
  3125     0283  00C5               	movwf	main@menu
  3126     0284                     l4860:
  3127                           
  3128                           ;main.c: 214: 
  3129     0284  3003               	movlw	3
  3130     0285  00EF               	movwf	_sw_p
  3131                           
  3132                           ;main.c: 215:                     TMR2ON = 0;
  3133     0286  2A9A               	goto	l4868
  3134     0287                     l4862:
  3135     0287  3003               	movlw	3
  3136     0288  066F               	xorwf	_sw_p,w
  3137     0289  1D03               	btfss	3,2
  3138     028A  2A8C               	goto	u5371
  3139     028B  2A8D               	goto	u5370
  3140     028C                     u5371:
  3141     028C  2A9A               	goto	l4868
  3142     028D                     u5370:
  3143     028D                     l4864:
  3144                           
  3145                           ;main.c: 217:                 break;;main.c: 218:             case 0x04:
  3146     028D  303F               	movlw	63
  3147     028E  00D1               	movwf	main@key
  3148     028F                     l4866:
  3149                           
  3150                           ;main.c: 219:                 if (key == 0x37 || key == 0x2F)
  3151     028F  084F               	movf	main@reset_flag,w
  3152     0290  00A2               	movwf	menu_screen@reset_flag
  3153     0291  0851               	movf	main@key,w
  3154     0292  120A  158A  23D4  120A  118A  	fcall	_menu_screen
  3155     0297  1283               	bcf	3,5	;RP0=0, select bank0
  3156     0298  1303               	bcf	3,6	;RP1=0, select bank0
  3157     0299  00C5               	movwf	main@menu
  3158     029A                     l4868:
  3159                           
  3160                           ;main.c: 222:                     if (++press_time >= 10)
  3161     029A  30F0               	movlw	240
  3162     029B  0645               	xorwf	main@menu,w
  3163     029C  1D03               	btfss	3,2
  3164     029D  2A9F               	goto	u5381
  3165     029E  2AA0               	goto	u5380
  3166     029F                     u5381:
  3167     029F  2C34               	goto	l5056
  3168     02A0                     u5380:
  3169     02A0                     l4870:
  3170                           
  3171                           ;main.c: 223:                         sw_p = 0x02;;main.c: 224:                 }
  3172     02A0  160A  118A  2266  120A  118A  	fcall	_clear_screen
  3173     02A5                     l4872:
  3174                           
  3175                           ;main.c: 226:                 {
  3176     02A5  3001               	movlw	1
  3177     02A6  1283               	bcf	3,5	;RP0=0, select bank0
  3178     02A7  1303               	bcf	3,6	;RP1=0, select bank0
  3179     02A8  00D0               	movwf	main@operation_flag
  3180     02A9  2A1E               	goto	l4822
  3181     02AA                     l4876:
  3182                           
  3183                           ;main.c: 232:                 else
  3184     02AA  3037               	movlw	55
  3185     02AB  0651               	xorwf	main@key,w
  3186     02AC  1903               	btfsc	3,2
  3187     02AD  2AAF               	goto	u5391
  3188     02AE  2AB0               	goto	u5390
  3189     02AF                     u5391:
  3190     02AF  2AB6               	goto	l4880
  3191     02B0                     u5390:
  3192     02B0                     l4878:
  3193     02B0  302F               	movlw	47
  3194     02B1  0651               	xorwf	main@key,w
  3195     02B2  1D03               	btfss	3,2
  3196     02B3  2AB5               	goto	u5401
  3197     02B4  2AB6               	goto	u5400
  3198     02B5                     u5401:
  3199     02B5  2ACA               	goto	l4884
  3200     02B6                     u5400:
  3201     02B6                     l4880:
  3202                           
  3203                           ;main.c: 233:                 {;main.c: 234:                     press_time = 0;
  3204     02B6  0851               	movf	main@key,w
  3205     02B7  00CC               	movwf	main@prev_key
  3206                           
  3207                           ;main.c: 235:                 }
  3208     02B8  3001               	movlw	1
  3209     02B9  07CD               	addwf	main@press_time,f
  3210     02BA  1803               	skipnc
  3211     02BB  0ACE               	incf	main@press_time+1,f
  3212     02BC  3000               	movlw	0
  3213     02BD  07CE               	addwf	main@press_time+1,f
  3214     02BE  3000               	movlw	0
  3215     02BF  024E               	subwf	main@press_time+1,w
  3216     02C0  300A               	movlw	10
  3217     02C1  1903               	skipnz
  3218     02C2  024D               	subwf	main@press_time,w
  3219     02C3  1C03               	skipc
  3220     02C4  2AC6               	goto	u5411
  3221     02C5  2AC7               	goto	u5410
  3222     02C6                     u5411:
  3223     02C6  2AE1               	goto	l4898
  3224     02C7                     u5410:
  3225     02C7                     l4882:
  3226                           
  3227                           ;main.c: 236: 
  3228     02C7  3002               	movlw	2
  3229     02C8  00EF               	movwf	_sw_p
  3230     02C9  2AE1               	goto	l4898
  3231     02CA                     l4884:
  3232     02CA  084D               	movf	main@press_time,w
  3233     02CB  044E               	iorwf	main@press_time+1,w
  3234     02CC  1903               	btfsc	3,2
  3235     02CD  2ACF               	goto	u5421
  3236     02CE  2AD0               	goto	u5420
  3237     02CF                     u5421:
  3238     02CF  2ADF               	goto	l4894
  3239     02D0                     u5420:
  3240     02D0                     l4886:
  3241     02D0  3000               	movlw	0
  3242     02D1  024E               	subwf	main@press_time+1,w
  3243     02D2  300A               	movlw	10
  3244     02D3  1903               	skipnz
  3245     02D4  024D               	subwf	main@press_time,w
  3246     02D5  1803               	skipnc
  3247     02D6  2AD8               	goto	u5431
  3248     02D7  2AD9               	goto	u5430
  3249     02D8                     u5431:
  3250     02D8  2ADF               	goto	l4894
  3251     02D9                     u5430:
  3252     02D9                     l4888:
  3253                           
  3254                           ;main.c: 239:                 {;main.c: 240:                     view = view_log(key, re
      +                          set_flag);
  3255     02D9  3001               	movlw	1
  3256     02DA  00EF               	movwf	_sw_p
  3257     02DB                     l4890:
  3258                           
  3259                           ;main.c: 241:                     sw_p = 0x03;
  3260     02DB  084C               	movf	main@prev_key,w
  3261     02DC  00D1               	movwf	main@key
  3262     02DD                     l4892:
  3263                           
  3264                           ;main.c: 242:                 }
  3265     02DD  303F               	movlw	63
  3266     02DE  00CC               	movwf	main@prev_key
  3267     02DF                     l4894:
  3268                           
  3269                           ;main.c: 243:                 else if (sw_p == 0x03)
  3270     02DF  01CD               	clrf	main@press_time
  3271     02E0  01CE               	clrf	main@press_time+1
  3272     02E1                     l4898:	
  3273                           ;main.c: 244:                 {
  3274                           
  3275                           
  3276                           ;main.c: 251:                     prev_key = 0x3F;
  3277     02E1  036F               	decf	_sw_p,w
  3278     02E2  1D03               	btfss	3,2
  3279     02E3  2AE5               	goto	u5441
  3280     02E4  2AE6               	goto	u5440
  3281     02E5                     u5441:
  3282     02E5  2AF4               	goto	l4904
  3283     02E6                     u5440:
  3284     02E6                     l4900:
  3285                           
  3286                           ;main.c: 252:                     view = view_log(key, reset_flag);;main.c: 253:        
      +                                       sw_p = 0x03;
  3287     02E6  084F               	movf	main@reset_flag,w
  3288     02E7  00A3               	movwf	view_log@reset_flag
  3289     02E8  0851               	movf	main@key,w
  3290     02E9  120A  158A  2338  120A  118A  	fcall	_view_log
  3291     02EE  1283               	bcf	3,5	;RP0=0, select bank0
  3292     02EF  1303               	bcf	3,6	;RP1=0, select bank0
  3293     02F0  00C3               	movwf	main@view
  3294     02F1                     l4902:
  3295                           
  3296                           ;main.c: 254:                 }
  3297     02F1  3003               	movlw	3
  3298     02F2  00EF               	movwf	_sw_p
  3299                           
  3300                           ;main.c: 255: 
  3301     02F3  2B3B               	goto	l4942
  3302     02F4                     l4904:
  3303     02F4  3003               	movlw	3
  3304     02F5  066F               	xorwf	_sw_p,w
  3305     02F6  1D03               	btfss	3,2
  3306     02F7  2AF9               	goto	u5451
  3307     02F8  2AFA               	goto	u5450
  3308     02F9                     u5451:
  3309     02F9  2B08               	goto	l4910
  3310     02FA                     u5450:
  3311     02FA                     l4906:
  3312                           
  3313                           ;main.c: 257:                 {;main.c: 258:                     case 0xF1:
  3314     02FA  303F               	movlw	63
  3315     02FB  00D1               	movwf	main@key
  3316     02FC                     l4908:
  3317                           
  3318                           ;main.c: 259:                         view = 0;
  3319     02FC  084F               	movf	main@reset_flag,w
  3320     02FD  00A3               	movwf	view_log@reset_flag
  3321     02FE  0851               	movf	main@key,w
  3322     02FF  120A  158A  2338  120A  118A  	fcall	_view_log
  3323     0304  1283               	bcf	3,5	;RP0=0, select bank0
  3324     0305  1303               	bcf	3,6	;RP1=0, select bank0
  3325     0306  00C3               	movwf	main@view
  3326                           
  3327                           ;main.c: 260:                         clear_screen();
  3328     0307  2B3B               	goto	l4942
  3329     0308                     l4910:
  3330     0308  3002               	movlw	2
  3331     0309  066F               	xorwf	_sw_p,w
  3332     030A  1D03               	btfss	3,2
  3333     030B  2B0D               	goto	u5461
  3334     030C  2B0E               	goto	u5460
  3335     030D                     u5461:
  3336     030D  2B3B               	goto	l4942
  3337     030E                     u5460:
  3338     030E                     l4912:
  3339                           
  3340                           ;main.c: 262:                         operation_flag = 0x03;;main.c: 263:               
      +                                    press_time = 0;
  3341     030E  084C               	movf	main@prev_key,w
  3342     030F  00D1               	movwf	main@key
  3343     0310                     l4914:
  3344                           
  3345                           ;main.c: 264:                         reset_flag = 0x22;
  3346     0310  303F               	movlw	63
  3347     0311  00CC               	movwf	main@prev_key
  3348     0312                     l4916:
  3349                           
  3350                           ;main.c: 265: 
  3351     0312  084F               	movf	main@reset_flag,w
  3352     0313  00A3               	movwf	view_log@reset_flag
  3353     0314  0851               	movf	main@key,w
  3354     0315  120A  158A  2338  120A  118A  	fcall	_view_log
  3355     031A  1283               	bcf	3,5	;RP0=0, select bank0
  3356     031B  1303               	bcf	3,6	;RP1=0, select bank0
  3357     031C  00C3               	movwf	main@view
  3358     031D  2AF1               	goto	l4902
  3359     031E                     l4920:
  3360                           
  3361                           ;main.c: 272:                         operation_flag = 0x01;
  3362     031E  01C3               	clrf	main@view
  3363     031F                     l4922:
  3364                           
  3365                           ;main.c: 273:                         press_time = 0;
  3366     031F  160A  118A  2266  120A  118A  	fcall	_clear_screen
  3367     0324                     l4924:
  3368                           
  3369                           ;main.c: 275:                 }
  3370     0324  3003               	movlw	3
  3371     0325  1283               	bcf	3,5	;RP0=0, select bank0
  3372     0326  1303               	bcf	3,6	;RP1=0, select bank0
  3373     0327  00D0               	movwf	main@operation_flag
  3374     0328                     l4926:
  3375                           
  3376                           ;main.c: 276:                 break;
  3377     0328  01CD               	clrf	main@press_time
  3378     0329  01CE               	clrf	main@press_time+1
  3379     032A                     l4928:
  3380                           
  3381                           ;main.c: 277:             case 0x05:
  3382     032A  3022               	movlw	34
  3383     032B  00CF               	movwf	main@reset_flag
  3384     032C                     l4930:
  3385                           
  3386                           ;main.c: 279:                 clear_screen();
  3387     032C  1512               	bsf	18,2	;volatile
  3388                           
  3389                           ;main.c: 280: 
  3390     032D  2888               	goto	l4706
  3391     032E                     l4932:
  3392                           
  3393                           ;main.c: 282:                 break;
  3394     032E  01C3               	clrf	main@view
  3395     032F                     l4934:
  3396                           
  3397                           ;main.c: 283:             case 0x06:
  3398     032F  160A  118A  2266  120A  118A  	fcall	_clear_screen
  3399     0334                     l4936:
  3400                           
  3401                           ;main.c: 285:                 clear_screen();
  3402     0334  3001               	movlw	1
  3403     0335  1283               	bcf	3,5	;RP0=0, select bank0
  3404     0336  1303               	bcf	3,6	;RP1=0, select bank0
  3405     0337  00D0               	movwf	main@operation_flag
  3406     0338                     l4938:
  3407                           
  3408                           ;main.c: 286: 
  3409     0338  01CD               	clrf	main@press_time
  3410     0339  01CE               	clrf	main@press_time+1
  3411                           
  3412                           ;main.c: 287:                 operation_flag = 0x01;
  3413     033A  2C34               	goto	l5056
  3414     033B                     l4942:
  3415     033B  0843               	movf	main@view,w
  3416                           
  3417                           ; Switch size 1, requested type "simple"
  3418                           ; Number of cases is 2, Range of values is 240 to 241
  3419                           ; switch strategies available:
  3420                           ; Name         Instructions Cycles
  3421                           ; simple_byte            7     4 (average)
  3422                           ; direct_byte           17    11 (fixed)
  3423                           ; jumptable            263     9 (fixed)
  3424                           ;	Chosen strategy is simple_byte
  3425     033C  3AF0               	xorlw	240	; case 240
  3426     033D  1903               	skipnz
  3427     033E  2B2E               	goto	l4932
  3428     033F  3A01               	xorlw	1	; case 241
  3429     0340  1903               	skipnz
  3430     0341  2B1E               	goto	l4920
  3431     0342  2C34               	goto	l5056
  3432     0343                     l4944:
  3433                           
  3434                           ;main.c: 291:                 {
  3435     0343  084F               	movf	main@reset_flag,w
  3436     0344  160A  118A  236F  120A  118A  	fcall	_clear_log
  3437     0349                     l4946:
  3438                           
  3439                           ;main.c: 292:                     prev_key = key;
  3440     0349  160A  118A  2266  120A  118A  	fcall	_clear_screen
  3441     034E                     l4948:
  3442                           
  3443                           ;main.c: 294:                         sw_p = 0x02;
  3444     034E  3001               	movlw	1
  3445     034F  1283               	bcf	3,5	;RP0=0, select bank0
  3446     0350  1303               	bcf	3,6	;RP1=0, select bank0
  3447     0351  00D0               	movwf	main@operation_flag
  3448                           
  3449                           ;main.c: 295:                 }
  3450     0352  2C34               	goto	l5056
  3451     0353                     l4950:
  3452                           
  3453                           ;main.c: 297:                 {
  3454     0353  120A  158A  2096  120A  118A  	fcall	_download_log
  3455     0358  2B49               	goto	l4946
  3456     0359                     l4956:
  3457                           
  3458                           ;main.c: 303:                 else
  3459     0359  3037               	movlw	55
  3460     035A  0651               	xorwf	main@key,w
  3461     035B  1903               	btfsc	3,2
  3462     035C  2B5E               	goto	u5471
  3463     035D  2B5F               	goto	u5470
  3464     035E                     u5471:
  3465     035E  2B65               	goto	l4960
  3466     035F                     u5470:
  3467     035F                     l4958:
  3468     035F  302F               	movlw	47
  3469     0360  0651               	xorwf	main@key,w
  3470     0361  1D03               	btfss	3,2
  3471     0362  2B64               	goto	u5481
  3472     0363  2B65               	goto	u5480
  3473     0364                     u5481:
  3474     0364  2B79               	goto	l4964
  3475     0365                     u5480:
  3476     0365                     l4960:
  3477                           
  3478                           ;main.c: 304:                 {;main.c: 305:                     press_time = 0;
  3479     0365  0851               	movf	main@key,w
  3480     0366  00CC               	movwf	main@prev_key
  3481                           
  3482                           ;main.c: 306:                 }
  3483     0367  3001               	movlw	1
  3484     0368  07CD               	addwf	main@press_time,f
  3485     0369  1803               	skipnc
  3486     036A  0ACE               	incf	main@press_time+1,f
  3487     036B  3000               	movlw	0
  3488     036C  07CE               	addwf	main@press_time+1,f
  3489     036D  3000               	movlw	0
  3490     036E  024E               	subwf	main@press_time+1,w
  3491     036F  300B               	movlw	11
  3492     0370  1903               	skipnz
  3493     0371  024D               	subwf	main@press_time,w
  3494     0372  1C03               	skipc
  3495     0373  2B75               	goto	u5491
  3496     0374  2B76               	goto	u5490
  3497     0375                     u5491:
  3498     0375  2B90               	goto	l4978
  3499     0376                     u5490:
  3500     0376                     l4962:
  3501                           
  3502                           ;main.c: 307: 
  3503     0376  3002               	movlw	2
  3504     0377  00EF               	movwf	_sw_p
  3505     0378  2B90               	goto	l4978
  3506     0379                     l4964:
  3507     0379  084D               	movf	main@press_time,w
  3508     037A  044E               	iorwf	main@press_time+1,w
  3509     037B  1903               	btfsc	3,2
  3510     037C  2B7E               	goto	u5501
  3511     037D  2B7F               	goto	u5500
  3512     037E                     u5501:
  3513     037E  2B8E               	goto	l4974
  3514     037F                     u5500:
  3515     037F                     l4966:
  3516     037F  3000               	movlw	0
  3517     0380  024E               	subwf	main@press_time+1,w
  3518     0381  300A               	movlw	10
  3519     0382  1903               	skipnz
  3520     0383  024D               	subwf	main@press_time,w
  3521     0384  1803               	skipnc
  3522     0385  2B87               	goto	u5511
  3523     0386  2B88               	goto	u5510
  3524     0387                     u5511:
  3525     0387  2B8E               	goto	l4974
  3526     0388                     u5510:
  3527     0388                     l4968:
  3528                           
  3529                           ;main.c: 310:                 {;main.c: 311:                     time = set_time(key, re
      +                          set_flag);
  3530     0388  3001               	movlw	1
  3531     0389  00EF               	movwf	_sw_p
  3532     038A                     l4970:
  3533                           
  3534                           ;main.c: 312:                     sw_p = 0x03;
  3535     038A  084C               	movf	main@prev_key,w
  3536     038B  00D1               	movwf	main@key
  3537     038C                     l4972:
  3538                           
  3539                           ;main.c: 313:                 }
  3540     038C  303F               	movlw	63
  3541     038D  00CC               	movwf	main@prev_key
  3542     038E                     l4974:
  3543                           
  3544                           ;main.c: 314:                 else if (sw_p == 0x03)
  3545     038E  01CD               	clrf	main@press_time
  3546     038F  01CE               	clrf	main@press_time+1
  3547     0390                     l4978:	
  3548                           ;main.c: 315:                 {
  3549                           
  3550                           
  3551                           ;main.c: 322:                     prev_key = 0x3F;
  3552     0390  036F               	decf	_sw_p,w
  3553     0391  1D03               	btfss	3,2
  3554     0392  2B94               	goto	u5521
  3555     0393  2B95               	goto	u5520
  3556     0394                     u5521:
  3557     0394  2BA3               	goto	l4984
  3558     0395                     u5520:
  3559     0395                     l4980:
  3560                           
  3561                           ;main.c: 323:                     time = set_time(key, reset_flag);;main.c: 324:        
      +                                       sw_p = 0x03;
  3562     0395  084F               	movf	main@reset_flag,w
  3563     0396  00AA               	movwf	set_time@reset_flag
  3564     0397  0851               	movf	main@key,w
  3565     0398  120A  118A  243B  120A  118A  	fcall	_set_time
  3566     039D  1283               	bcf	3,5	;RP0=0, select bank0
  3567     039E  1303               	bcf	3,6	;RP1=0, select bank0
  3568     039F  00C4               	movwf	main@time
  3569     03A0                     l4982:
  3570                           
  3571                           ;main.c: 325:                 }
  3572     03A0  3003               	movlw	3
  3573     03A1  00EF               	movwf	_sw_p
  3574                           
  3575                           ;main.c: 326: 
  3576     03A2  2BD1               	goto	l5020
  3577     03A3                     l4984:
  3578     03A3  3003               	movlw	3
  3579     03A4  066F               	xorwf	_sw_p,w
  3580     03A5  1D03               	btfss	3,2
  3581     03A6  2BA8               	goto	u5531
  3582     03A7  2BA9               	goto	u5530
  3583     03A8                     u5531:
  3584     03A8  2BB7               	goto	l4990
  3585     03A9                     u5530:
  3586     03A9                     l4986:
  3587                           
  3588                           ;main.c: 328:                 {;main.c: 329:                     case 0xF1:
  3589     03A9  303F               	movlw	63
  3590     03AA  00D1               	movwf	main@key
  3591     03AB                     l4988:
  3592                           
  3593                           ;main.c: 330:                         time = 0;
  3594     03AB  084F               	movf	main@reset_flag,w
  3595     03AC  00AA               	movwf	set_time@reset_flag
  3596     03AD  0851               	movf	main@key,w
  3597     03AE  120A  118A  243B  120A  118A  	fcall	_set_time
  3598     03B3  1283               	bcf	3,5	;RP0=0, select bank0
  3599     03B4  1303               	bcf	3,6	;RP1=0, select bank0
  3600     03B5  00C4               	movwf	main@time
  3601                           
  3602                           ;main.c: 331:                         clear_screen();
  3603     03B6  2BD1               	goto	l5020
  3604     03B7                     l4990:
  3605     03B7  3002               	movlw	2
  3606     03B8  066F               	xorwf	_sw_p,w
  3607     03B9  1D03               	btfss	3,2
  3608     03BA  2BBC               	goto	u5541
  3609     03BB  2BBD               	goto	u5540
  3610     03BC                     u5541:
  3611     03BC  2BD1               	goto	l5020
  3612     03BD                     u5540:
  3613     03BD                     l4992:
  3614                           
  3615                           ;main.c: 333:                         operation_flag = 0x03;;main.c: 334:               
      +                                    press_time = 0;
  3616     03BD  084C               	movf	main@prev_key,w
  3617     03BE  00D1               	movwf	main@key
  3618     03BF                     l4994:
  3619                           
  3620                           ;main.c: 335:                         reset_flag = 0x22;
  3621     03BF  303F               	movlw	63
  3622     03C0  00CC               	movwf	main@prev_key
  3623     03C1                     l4996:
  3624                           
  3625                           ;main.c: 336:                         TMR2ON = 1;
  3626     03C1  084F               	movf	main@reset_flag,w
  3627     03C2  00AA               	movwf	set_time@reset_flag
  3628     03C3  0851               	movf	main@key,w
  3629     03C4  120A  118A  243B  120A  118A  	fcall	_set_time
  3630     03C9  1283               	bcf	3,5	;RP0=0, select bank0
  3631     03CA  1303               	bcf	3,6	;RP1=0, select bank0
  3632     03CB  00C4               	movwf	main@time
  3633     03CC  2BA0               	goto	l4982
  3634     03CD                     l5000:
  3635                           
  3636                           ;main.c: 343:                         break;
  3637     03CD  01C4               	clrf	main@time
  3638     03CE  2B1F               	goto	l4922
  3639     03CF                     l5012:
  3640                           
  3641                           ;main.c: 352:                     passwd = 0;
  3642     03CF  01C4               	clrf	main@time
  3643     03D0  2B49               	goto	l4946
  3644     03D1                     l5020:
  3645     03D1  0844               	movf	main@time,w
  3646                           
  3647                           ; Switch size 1, requested type "simple"
  3648                           ; Number of cases is 2, Range of values is 240 to 241
  3649                           ; switch strategies available:
  3650                           ; Name         Instructions Cycles
  3651                           ; simple_byte            7     4 (average)
  3652                           ; direct_byte           17    11 (fixed)
  3653                           ; jumptable            263     9 (fixed)
  3654                           ;	Chosen strategy is simple_byte
  3655     03D2  3AF0               	xorlw	240	; case 240
  3656     03D3  1903               	skipnz
  3657     03D4  2BCF               	goto	l5012
  3658     03D5  3A01               	xorlw	1	; case 241
  3659     03D6  1903               	skipnz
  3660     03D7  2BCD               	goto	l5000
  3661     03D8  2C34               	goto	l5056
  3662     03D9                     l5022:
  3663                           
  3664                           ;main.c: 360:                 {
  3665     03D9  084F               	movf	main@reset_flag,w
  3666     03DA  00A2               	movwf	change_passwd@reset_flag
  3667     03DB  0851               	movf	main@key,w
  3668     03DC  120A  158A  253F  120A  118A  	fcall	_change_passwd
  3669     03E1  1283               	bcf	3,5	;RP0=0, select bank0
  3670     03E2  1303               	bcf	3,6	;RP1=0, select bank0
  3671     03E3  00C9               	movwf	main@passwd
  3672     03E4                     l5024:
  3673                           
  3674                           ;main.c: 361:                     passwd = 0;
  3675     03E4  1512               	bsf	18,2	;volatile
  3676     03E5                     l5026:
  3677                           
  3678                           ;main.c: 363:                     operation_flag = 0x03;
  3679     03E5  30F0               	movlw	240
  3680     03E6  0649               	xorwf	main@passwd,w
  3681     03E7  1D03               	btfss	3,2
  3682     03E8  2BEA               	goto	u5551
  3683     03E9  2BEB               	goto	u5550
  3684     03EA                     u5551:
  3685     03EA  2BFD               	goto	l5038
  3686     03EB                     u5550:
  3687     03EB                     l5028:
  3688                           
  3689                           ;main.c: 364:                     reset_flag = 0x22;;main.c: 365:                     TM
      +                          R2ON = 1;
  3690     03EB  01C9               	clrf	main@passwd
  3691     03EC                     l5030:
  3692                           
  3693                           ;main.c: 366:                     clcd_write(0x0C, 0);
  3694     03EC  160A  118A  2266  120A  118A  	fcall	_clear_screen
  3695     03F1                     l5032:
  3696                           
  3697                           ;main.c: 367:                     continue;
  3698     03F1  3001               	movlw	1
  3699     03F2  1283               	bcf	3,5	;RP0=0, select bank0
  3700     03F3  1303               	bcf	3,6	;RP1=0, select bank0
  3701     03F4  00D0               	movwf	main@operation_flag
  3702     03F5                     l5034:
  3703                           
  3704                           ;main.c: 368:                 }
  3705     03F5  01F2               	clrf	clcd_write@mode
  3706     03F6  300C               	movlw	12
  3707     03F7  160A  118A  230D  120A  118A  	fcall	_clcd_write
  3708     03FC  2A1E               	goto	l4822
  3709     03FD                     l5038:
  3710     03FD  30F1               	movlw	241
  3711     03FE  0649               	xorwf	main@passwd,w
  3712     03FF  1D03               	btfss	3,2
  3713     0400  2C02               	goto	u5561
  3714     0401  2C03               	goto	u5560
  3715     0402                     u5561:
  3716     0402  2C34               	goto	l5056
  3717     0403                     u5560:
  3718     0403                     l5040:
  3719                           
  3720                           ;main.c: 373: }
  3721     0403  01C9               	clrf	main@passwd
  3722     0404                     l5042:
  3723     0404  160A  118A  2266  120A  118A  	fcall	_clear_screen
  3724     0409                     l5044:
  3725     0409  3003               	movlw	3
  3726     040A  1283               	bcf	3,5	;RP0=0, select bank0
  3727     040B  1303               	bcf	3,6	;RP1=0, select bank0
  3728     040C  00D0               	movwf	main@operation_flag
  3729     040D                     l5046:
  3730     040D  3022               	movlw	34
  3731     040E  00CF               	movwf	main@reset_flag
  3732     040F                     l5048:
  3733     040F  1512               	bsf	18,2	;volatile
  3734     0410                     l5050:
  3735     0410  01F2               	clrf	clcd_write@mode
  3736     0411  300C               	movlw	12
  3737     0412  160A  118A  230D  120A  118A  	fcall	_clcd_write
  3738     0417  2888               	goto	l4706
  3739     0418                     l5054:
  3740     0418  1283               	bcf	3,5	;RP0=0, select bank0
  3741     0419  1303               	bcf	3,6	;RP1=0, select bank0
  3742     041A  0850               	movf	main@operation_flag,w
  3743                           
  3744                           ; Switch size 1, requested type "simple"
  3745                           ; Number of cases is 8, Range of values is 1 to 8
  3746                           ; switch strategies available:
  3747                           ; Name         Instructions Cycles
  3748                           ; simple_byte           25    13 (average)
  3749                           ; direct_byte           35    11 (fixed)
  3750                           ; jumptable            263     9 (fixed)
  3751                           ;	Chosen strategy is simple_byte
  3752     041B  3A01               	xorlw	1	; case 1
  3753     041C  1903               	skipnz
  3754     041D  2A04               	goto	l4816
  3755     041E  3A03               	xorlw	3	; case 2
  3756     041F  1903               	skipnz
  3757     0420  2A2E               	goto	l4832
  3758     0421  3A01               	xorlw	1	; case 3
  3759     0422  1903               	skipnz
  3760     0423  2A3D               	goto	l4834
  3761     0424  3A07               	xorlw	7	; case 4
  3762     0425  1903               	skipnz
  3763     0426  2AAA               	goto	l4876
  3764     0427  3A01               	xorlw	1	; case 5
  3765     0428  1903               	skipnz
  3766     0429  2B43               	goto	l4944
  3767     042A  3A03               	xorlw	3	; case 6
  3768     042B  1903               	skipnz
  3769     042C  2B53               	goto	l4950
  3770     042D  3A01               	xorlw	1	; case 7
  3771     042E  1903               	skipnz
  3772     042F  2B59               	goto	l4956
  3773     0430  3A0F               	xorlw	15	; case 8
  3774     0431  1903               	skipnz
  3775     0432  2BD9               	goto	l5022
  3776     0433  2C34               	goto	l5056
  3777     0434                     l5056:
  3778     0434  1283               	bcf	3,5	;RP0=0, select bank0
  3779     0435  1303               	bcf	3,6	;RP1=0, select bank0
  3780     0436  01CF               	clrf	main@reset_flag
  3781     0437  2888               	goto	l4706
  3782     0438  120A  118A  280C   	ljmp	start
  3783     043B                     __end_of_main:
  3784                           
  3785                           	psect	text1
  3786     0B38                     __ptext1:	
  3787 ;; *************** function _view_log *****************
  3788 ;; Defined at:
  3789 ;;		line 295 in file "car_black_box_def.c"
  3790 ;; Parameters:    Size  Location     Type
  3791 ;;  key             1    wreg     unsigned char 
  3792 ;;  reset_flag      1    3[BANK0 ] unsigned char 
  3793 ;; Auto vars:     Size  Location     Type
  3794 ;;  key             1    4[BANK0 ] unsigned char 
  3795 ;; Return value:  Size  Location     Type
  3796 ;;                  1    wreg      unsigned char 
  3797 ;; Registers used:
  3798 ;;		wreg, fsr0l, fsr0h, status,2, status,0, pclath, btemp1, cstack
  3799 ;; Tracked objects:
  3800 ;;		On entry : 0/0
  3801 ;;		On exit  : 0/0
  3802 ;;		Unchanged: 0/0
  3803 ;; Data sizes:     COMMON   BANK0   BANK1   BANK3   BANK2
  3804 ;;      Params:         0       1       0       0       0
  3805 ;;      Locals:         0       1       0       0       0
  3806 ;;      Temps:          0       0       0       0       0
  3807 ;;      Totals:         0       2       0       0       0
  3808 ;;Total ram usage:        2 bytes
  3809 ;; Hardware stack levels used: 1
  3810 ;; Hardware stack levels required when called: 3
  3811 ;; This function calls:
  3812 ;;		_clcd_print
  3813 ;;		_clear_screen
  3814 ;;		_get_saved_log
  3815 ;;		_print_log
  3816 ;; This function is called by:
  3817 ;;		_main
  3818 ;; This function uses a non-reentrant model
  3819 ;;
  3820                           
  3821     0B38                     _view_log:	
  3822                           ;psect for function _view_log
  3823                           
  3824                           
  3825                           ;incstack = 0
  3826                           ; Regs used in _view_log: [wreg-fsr0h+status,2+status,0+pclath+btemp1+cstack]
  3827                           ;view_log@key stored from wreg
  3828     0B38  1283               	bcf	3,5	;RP0=0, select bank0
  3829     0B39  1303               	bcf	3,6	;RP1=0, select bank0
  3830     0B3A  00A4               	movwf	view_log@key
  3831     0B3B                     l4348:
  3832                           
  3833                           ;car_black_box_def.c: 295: unsigned char view_log(unsigned char key, unsigned char reset
      +                          _flag);car_black_box_def.c: 296: {;car_black_box_def.c: 297:     static char view_pos;;c
      +                          ar_black_box_def.c: 299:     if (reset_flag == 0x33)
  3834     0B3B  3033               	movlw	51
  3835     0B3C  0623               	xorwf	view_log@reset_flag,w
  3836     0B3D  1D03               	btfss	3,2
  3837     0B3E  2B40               	goto	u4501
  3838     0B3F  2B41               	goto	u4500
  3839     0B40                     u4501:
  3840     0B40  2B5B               	goto	l4360
  3841     0B41                     u4500:
  3842     0B41                     l4350:
  3843                           
  3844                           ;car_black_box_def.c: 300:     {;car_black_box_def.c: 301:         clear_screen();
  3845     0B41  160A  118A  2266  120A  158A  	fcall	_clear_screen
  3846     0B46                     l4352:
  3847                           
  3848                           ;car_black_box_def.c: 302:         key = 0x3F;
  3849     0B46  303F               	movlw	63
  3850     0B47  1283               	bcf	3,5	;RP0=0, select bank0
  3851     0B48  1303               	bcf	3,6	;RP1=0, select bank0
  3852     0B49  00A4               	movwf	view_log@key
  3853     0B4A                     l4354:
  3854                           
  3855                           ;car_black_box_def.c: 303:         view_pos = 0;
  3856     0B4A  01E7               	clrf	view_log@view_pos
  3857     0B4B                     l4356:
  3858                           
  3859                           ;car_black_box_def.c: 305:         if (log_flag)
  3860     0B4B  086E               	movf	_log_flag,w
  3861     0B4C  1903               	btfsc	3,2
  3862     0B4D  2B4F               	goto	u4511
  3863     0B4E  2B50               	goto	u4510
  3864     0B4F                     u4511:
  3865     0B4F  2B5B               	goto	l4360
  3866     0B50                     u4510:
  3867     0B50                     l4358:
  3868                           
  3869                           ;car_black_box_def.c: 306:         {;car_black_box_def.c: 307:             clcd_print("#
      +                           TIME     EV SP", (0x80 + 0));
  3870     0B50  302B               	movlw	low (STR_23| (0+32768))
  3871     0B51  00F6               	movwf	clcd_print@str
  3872     0B52  3090               	movlw	high (STR_23| (0+32768))
  3873     0B53  00F7               	movwf	clcd_print@str+1
  3874     0B54  3080               	movlw	128
  3875     0B55  00F8               	movwf	clcd_print@addr
  3876     0B56  160A  118A  2494  120A  158A  	fcall	_clcd_print
  3877     0B5B                     l4360:
  3878                           
  3879                           ;car_black_box_def.c: 312:     if (log_flag)
  3880     0B5B  1283               	bcf	3,5	;RP0=0, select bank0
  3881     0B5C  1303               	bcf	3,6	;RP1=0, select bank0
  3882     0B5D  086E               	movf	_log_flag,w
  3883     0B5E  1903               	btfsc	3,2
  3884     0B5F  2B61               	goto	u4521
  3885     0B60  2B62               	goto	u4520
  3886     0B61                     u4521:
  3887     0B61  2B9C               	goto	l4386
  3888     0B62                     u4520:
  3889     0B62                     l4362:
  3890                           
  3891                           ;car_black_box_def.c: 313:     {;car_black_box_def.c: 315:         if (key == 0x37 && sw
      +                          _p == 0x01)
  3892     0B62  3037               	movlw	55
  3893     0B63  0624               	xorwf	view_log@key,w
  3894     0B64  1D03               	btfss	3,2
  3895     0B65  2B67               	goto	u4531
  3896     0B66  2B68               	goto	u4530
  3897     0B67                     u4531:
  3898     0B67  2B78               	goto	l4372
  3899     0B68                     u4530:
  3900     0B68                     l4364:
  3901     0B68  036F               	decf	_sw_p,w
  3902     0B69  1D03               	btfss	3,2
  3903     0B6A  2B6C               	goto	u4541
  3904     0B6B  2B6D               	goto	u4540
  3905     0B6C                     u4541:
  3906     0B6C  2B78               	goto	l4372
  3907     0B6D                     u4540:
  3908     0B6D                     l4366:
  3909                           
  3910                           ;car_black_box_def.c: 316:         {;car_black_box_def.c: 317:             if (view_pos 
      +                          > 0)
  3911     0B6D  0867               	movf	view_log@view_pos,w
  3912     0B6E  1903               	btfsc	3,2
  3913     0B6F  2B71               	goto	u4551
  3914     0B70  2B72               	goto	u4550
  3915     0B71                     u4551:
  3916     0B71  2B75               	goto	l4370
  3917     0B72                     u4550:
  3918     0B72                     l4368:
  3919                           
  3920                           ;car_black_box_def.c: 318:                 view_pos--;
  3921     0B72  3001               	movlw	1
  3922     0B73  02E7               	subwf	view_log@view_pos,f
  3923     0B74  2B8D               	goto	l4382
  3924     0B75                     l4370:
  3925                           
  3926                           ;car_black_box_def.c: 320:                 view_pos = log_count;
  3927     0B75  086D               	movf	_log_count,w
  3928     0B76  00E7               	movwf	view_log@view_pos
  3929     0B77  2B8D               	goto	l4382
  3930     0B78                     l4372:
  3931     0B78  302F               	movlw	47
  3932     0B79  0624               	xorwf	view_log@key,w
  3933     0B7A  1D03               	btfss	3,2
  3934     0B7B  2B7D               	goto	u4561
  3935     0B7C  2B7E               	goto	u4560
  3936     0B7D                     u4561:
  3937     0B7D  2B8D               	goto	l4382
  3938     0B7E                     u4560:
  3939     0B7E                     l4374:
  3940     0B7E  036F               	decf	_sw_p,w
  3941     0B7F  1D03               	btfss	3,2
  3942     0B80  2B82               	goto	u4571
  3943     0B81  2B83               	goto	u4570
  3944     0B82                     u4571:
  3945     0B82  2B8D               	goto	l4382
  3946     0B83                     u4570:
  3947     0B83                     l4376:
  3948                           
  3949                           ;car_black_box_def.c: 325:         {;car_black_box_def.c: 326:             if (view_pos 
      +                          < log_count)
  3950     0B83  086D               	movf	_log_count,w
  3951     0B84  0267               	subwf	view_log@view_pos,w
  3952     0B85  1803               	skipnc
  3953     0B86  2B88               	goto	u4581
  3954     0B87  2B89               	goto	u4580
  3955     0B88                     u4581:
  3956     0B88  2B8C               	goto	l4380
  3957     0B89                     u4580:
  3958     0B89                     l4378:
  3959                           
  3960                           ;car_black_box_def.c: 327:                 view_pos++;
  3961     0B89  3001               	movlw	1
  3962     0B8A  07E7               	addwf	view_log@view_pos,f
  3963     0B8B  2B8D               	goto	l4382
  3964     0B8C                     l4380:
  3965                           
  3966                           ;car_black_box_def.c: 329:                 view_pos = 0;
  3967     0B8C  01E7               	clrf	view_log@view_pos
  3968     0B8D                     l4382:
  3969                           
  3970                           ;car_black_box_def.c: 332:         get_saved_log(view_pos);
  3971     0B8D  0867               	movf	view_log@view_pos,w
  3972     0B8E  160A  118A  2655  120A  158A  	fcall	_get_saved_log
  3973     0B93                     l4384:
  3974                           
  3975                           ;car_black_box_def.c: 334:         print_log(view_pos);
  3976     0B93  1283               	bcf	3,5	;RP0=0, select bank0
  3977     0B94  1303               	bcf	3,6	;RP1=0, select bank0
  3978     0B95  0867               	movf	view_log@view_pos,w
  3979     0B96  120A  158A  22A7  120A  158A  	fcall	_print_log
  3980                           
  3981                           ;car_black_box_def.c: 335:     }
  3982     0B9B  2BB2               	goto	l4388
  3983     0B9C                     l4386:
  3984                           
  3985                           ;car_black_box_def.c: 337:     {;car_black_box_def.c: 338:         clcd_print("No logs",
      +                           (0x80 + 0));
  3986     0B9C  3060               	movlw	low (STR_24| (0+32768))
  3987     0B9D  00F6               	movwf	clcd_print@str
  3988     0B9E  3091               	movlw	high (STR_24| (0+32768))
  3989     0B9F  00F7               	movwf	clcd_print@str+1
  3990     0BA0  3080               	movlw	128
  3991     0BA1  00F8               	movwf	clcd_print@addr
  3992     0BA2  160A  118A  2494  120A  158A  	fcall	_clcd_print
  3993                           
  3994                           ;car_black_box_def.c: 339:         clcd_print("Available", (0xC0 + 0));
  3995     0BA7  3015               	movlw	low (STR_25| (0+32768))
  3996     0BA8  00F6               	movwf	clcd_print@str
  3997     0BA9  3091               	movlw	high (STR_25| (0+32768))
  3998     0BAA  00F7               	movwf	clcd_print@str+1
  3999     0BAB  30C0               	movlw	192
  4000     0BAC  00F8               	movwf	clcd_print@addr
  4001     0BAD  160A  118A  2494  120A  158A  	fcall	_clcd_print
  4002     0BB2                     l4388:
  4003                           
  4004                           ;car_black_box_def.c: 343:     if (key == 0x37 && sw_p == 0x02)
  4005     0BB2  3037               	movlw	55
  4006     0BB3  1283               	bcf	3,5	;RP0=0, select bank0
  4007     0BB4  1303               	bcf	3,6	;RP1=0, select bank0
  4008     0BB5  0624               	xorwf	view_log@key,w
  4009     0BB6  1D03               	btfss	3,2
  4010     0BB7  2BB9               	goto	u4591
  4011     0BB8  2BBA               	goto	u4590
  4012     0BB9                     u4591:
  4013     0BB9  2BC4               	goto	l4400
  4014     0BBA                     u4590:
  4015     0BBA                     l4390:
  4016     0BBA  3002               	movlw	2
  4017     0BBB  066F               	xorwf	_sw_p,w
  4018     0BBC  1D03               	btfss	3,2
  4019     0BBD  2BBF               	goto	u4601
  4020     0BBE  2BC0               	goto	u4600
  4021     0BBF                     u4601:
  4022     0BBF  2BC4               	goto	l4400
  4023     0BC0                     u4600:
  4024     0BC0                     l4392:
  4025                           
  4026                           ;car_black_box_def.c: 344:     {;car_black_box_def.c: 345:         return_time = 5;
  4027     0BC0  3005               	movlw	5
  4028     0BC1  00EB               	movwf	_return_time
  4029     0BC2                     l4394:
  4030                           
  4031                           ;car_black_box_def.c: 346:         return 0xF1;
  4032     0BC2  30F1               	movlw	241
  4033     0BC3  2BD3               	goto	l441
  4034     0BC4                     l4400:
  4035     0BC4  302F               	movlw	47
  4036     0BC5  0624               	xorwf	view_log@key,w
  4037     0BC6  1D03               	btfss	3,2
  4038     0BC7  2BC9               	goto	u4611
  4039     0BC8  2BCA               	goto	u4610
  4040     0BC9                     u4611:
  4041     0BC9  2BD2               	goto	l4408
  4042     0BCA                     u4610:
  4043     0BCA                     l4402:
  4044     0BCA  3002               	movlw	2
  4045     0BCB  066F               	xorwf	_sw_p,w
  4046     0BCC  1D03               	btfss	3,2
  4047     0BCD  2BCF               	goto	u4621
  4048     0BCE  2BD0               	goto	u4620
  4049     0BCF                     u4621:
  4050     0BCF  2BD2               	goto	l4408
  4051     0BD0                     u4620:
  4052     0BD0                     l4404:
  4053                           
  4054                           ;car_black_box_def.c: 350:         return 0xF0;
  4055     0BD0  30F0               	movlw	240
  4056     0BD1  2BD3               	goto	l441
  4057     0BD2                     l4408:
  4058                           
  4059                           ;car_black_box_def.c: 352:     return 0;
  4060     0BD2  3000               	movlw	0
  4061     0BD3                     l441:
  4062     0BD3  0008               	return
  4063     0BD4                     __end_of_view_log:
  4064                           
  4065                           	psect	text2
  4066     0AA7                     __ptext2:	
  4067 ;; *************** function _print_log *****************
  4068 ;; Defined at:
  4069 ;;		line 275 in file "car_black_box_def.c"
  4070 ;; Parameters:    Size  Location     Type
  4071 ;;  view_pos        1    wreg     unsigned char 
  4072 ;; Auto vars:     Size  Location     Type
  4073 ;;  view_pos        1    2[BANK0 ] unsigned char 
  4074 ;; Return value:  Size  Location     Type
  4075 ;;                  1    wreg      void 
  4076 ;; Registers used:
  4077 ;;		wreg, status,2, status,0, pclath, cstack
  4078 ;; Tracked objects:
  4079 ;;		On entry : 0/0
  4080 ;;		On exit  : 0/0
  4081 ;;		Unchanged: 0/0
  4082 ;; Data sizes:     COMMON   BANK0   BANK1   BANK3   BANK2
  4083 ;;      Params:         0       0       0       0       0
  4084 ;;      Locals:         0       1       0       0       0
  4085 ;;      Temps:          0       0       0       0       0
  4086 ;;      Totals:         0       1       0       0       0
  4087 ;;Total ram usage:        1 bytes
  4088 ;; Hardware stack levels used: 1
  4089 ;; Hardware stack levels required when called: 2
  4090 ;; This function calls:
  4091 ;;		_clcd_putch
  4092 ;; This function is called by:
  4093 ;;		_view_log
  4094 ;; This function uses a non-reentrant model
  4095 ;;
  4096                           
  4097     0AA7                     _print_log:	
  4098                           ;psect for function _print_log
  4099                           
  4100                           
  4101                           ;incstack = 0
  4102                           ; Regs used in _print_log: [wreg+status,2+status,0+pclath+cstack]
  4103                           ;print_log@view_pos stored from wreg
  4104     0AA7  1283               	bcf	3,5	;RP0=0, select bank0
  4105     0AA8  1303               	bcf	3,6	;RP1=0, select bank0
  4106     0AA9  00A2               	movwf	print_log@view_pos
  4107     0AAA                     l4148:
  4108                           
  4109                           ;car_black_box_def.c: 275: static void print_log(unsigned char view_pos);car_black_box_d
      +                          ef.c: 276: {;car_black_box_def.c: 278:     clcd_putch(view_pos + '0', (0xC0 + 0));
  4110     0AAA  30C0               	movlw	192
  4111     0AAB  00A0               	movwf	clcd_putch@addr
  4112     0AAC  0822               	movf	print_log@view_pos,w
  4113     0AAD  3E30               	addlw	48
  4114     0AAE  160A  118A  22C1  120A  158A  	fcall	_clcd_putch
  4115                           
  4116                           ;car_black_box_def.c: 279:     clcd_putch(saved_time[0], (0xC0 + 2));
  4117     0AB3  30C2               	movlw	194
  4118     0AB4  1283               	bcf	3,5	;RP0=0, select bank0
  4119     0AB5  1303               	bcf	3,6	;RP1=0, select bank0
  4120     0AB6  00A0               	movwf	clcd_putch@addr
  4121     0AB7  1683               	bsf	3,5	;RP0=1, select bank1
  4122     0AB8  1303               	bcf	3,6	;RP1=0, select bank1
  4123     0AB9  0820               	movf	_saved_time^(0+128),w
  4124     0ABA  160A  118A  22C1  120A  158A  	fcall	_clcd_putch
  4125                           
  4126                           ;car_black_box_def.c: 280:     clcd_putch(saved_time[1], (0xC0 + 3));
  4127     0ABF  30C3               	movlw	195
  4128     0AC0  1283               	bcf	3,5	;RP0=0, select bank0
  4129     0AC1  1303               	bcf	3,6	;RP1=0, select bank0
  4130     0AC2  00A0               	movwf	clcd_putch@addr
  4131     0AC3  1683               	bsf	3,5	;RP0=1, select bank1
  4132     0AC4  1303               	bcf	3,6	;RP1=0, select bank1
  4133     0AC5  0821               	movf	(_saved_time^(0+128)+1),w
  4134     0AC6  160A  118A  22C1  120A  158A  	fcall	_clcd_putch
  4135                           
  4136                           ;car_black_box_def.c: 281:     clcd_putch(':', (0xC0 + 4));
  4137     0ACB  30C4               	movlw	196
  4138     0ACC  1283               	bcf	3,5	;RP0=0, select bank0
  4139     0ACD  1303               	bcf	3,6	;RP1=0, select bank0
  4140     0ACE  00A0               	movwf	clcd_putch@addr
  4141     0ACF  303A               	movlw	58
  4142     0AD0  160A  118A  22C1  120A  158A  	fcall	_clcd_putch
  4143                           
  4144                           ;car_black_box_def.c: 282:     clcd_putch(saved_time[2], (0xC0 + 5));
  4145     0AD5  30C5               	movlw	197
  4146     0AD6  1283               	bcf	3,5	;RP0=0, select bank0
  4147     0AD7  1303               	bcf	3,6	;RP1=0, select bank0
  4148     0AD8  00A0               	movwf	clcd_putch@addr
  4149     0AD9  1683               	bsf	3,5	;RP0=1, select bank1
  4150     0ADA  1303               	bcf	3,6	;RP1=0, select bank1
  4151     0ADB  0822               	movf	(_saved_time^(0+128)+2),w
  4152     0ADC  160A  118A  22C1  120A  158A  	fcall	_clcd_putch
  4153                           
  4154                           ;car_black_box_def.c: 283:     clcd_putch(saved_time[3], (0xC0 + 6));
  4155     0AE1  30C6               	movlw	198
  4156     0AE2  1283               	bcf	3,5	;RP0=0, select bank0
  4157     0AE3  1303               	bcf	3,6	;RP1=0, select bank0
  4158     0AE4  00A0               	movwf	clcd_putch@addr
  4159     0AE5  1683               	bsf	3,5	;RP0=1, select bank1
  4160     0AE6  1303               	bcf	3,6	;RP1=0, select bank1
  4161     0AE7  0823               	movf	(_saved_time^(0+128)+3),w
  4162     0AE8  160A  118A  22C1  120A  158A  	fcall	_clcd_putch
  4163                           
  4164                           ;car_black_box_def.c: 284:     clcd_putch(':', (0xC0 + 7));
  4165     0AED  30C7               	movlw	199
  4166     0AEE  1283               	bcf	3,5	;RP0=0, select bank0
  4167     0AEF  1303               	bcf	3,6	;RP1=0, select bank0
  4168     0AF0  00A0               	movwf	clcd_putch@addr
  4169     0AF1  303A               	movlw	58
  4170     0AF2  160A  118A  22C1  120A  158A  	fcall	_clcd_putch
  4171                           
  4172                           ;car_black_box_def.c: 285:     clcd_putch(saved_time[4], (0xC0 + 8));
  4173     0AF7  30C8               	movlw	200
  4174     0AF8  1283               	bcf	3,5	;RP0=0, select bank0
  4175     0AF9  1303               	bcf	3,6	;RP1=0, select bank0
  4176     0AFA  00A0               	movwf	clcd_putch@addr
  4177     0AFB  1683               	bsf	3,5	;RP0=1, select bank1
  4178     0AFC  1303               	bcf	3,6	;RP1=0, select bank1
  4179     0AFD  0824               	movf	(_saved_time^(0+128)+4),w
  4180     0AFE  160A  118A  22C1  120A  158A  	fcall	_clcd_putch
  4181                           
  4182                           ;car_black_box_def.c: 286:     clcd_putch(saved_time[5], (0xC0 + 9));
  4183     0B03  30C9               	movlw	201
  4184     0B04  1283               	bcf	3,5	;RP0=0, select bank0
  4185     0B05  1303               	bcf	3,6	;RP1=0, select bank0
  4186     0B06  00A0               	movwf	clcd_putch@addr
  4187     0B07  1683               	bsf	3,5	;RP0=1, select bank1
  4188     0B08  1303               	bcf	3,6	;RP1=0, select bank1
  4189     0B09  0825               	movf	(_saved_time^(0+128)+5),w
  4190     0B0A  160A  118A  22C1  120A  158A  	fcall	_clcd_putch
  4191                           
  4192                           ;car_black_box_def.c: 288:     clcd_putch(saved_ev[0], (0xC0 + 11));
  4193     0B0F  30CB               	movlw	203
  4194     0B10  1283               	bcf	3,5	;RP0=0, select bank0
  4195     0B11  1303               	bcf	3,6	;RP1=0, select bank0
  4196     0B12  00A0               	movwf	clcd_putch@addr
  4197     0B13  0855               	movf	_saved_ev,w
  4198     0B14  160A  118A  22C1  120A  158A  	fcall	_clcd_putch
  4199                           
  4200                           ;car_black_box_def.c: 289:     clcd_putch(saved_ev[1], (0xC0 + 12));
  4201     0B19  30CC               	movlw	204
  4202     0B1A  1283               	bcf	3,5	;RP0=0, select bank0
  4203     0B1B  1303               	bcf	3,6	;RP1=0, select bank0
  4204     0B1C  00A0               	movwf	clcd_putch@addr
  4205     0B1D  0856               	movf	_saved_ev+1,w
  4206     0B1E  160A  118A  22C1  120A  158A  	fcall	_clcd_putch
  4207                           
  4208                           ;car_black_box_def.c: 291:     clcd_putch(saved_sp[0], (0xC0 + 14));
  4209     0B23  30CE               	movlw	206
  4210     0B24  1283               	bcf	3,5	;RP0=0, select bank0
  4211     0B25  1303               	bcf	3,6	;RP1=0, select bank0
  4212     0B26  00A0               	movwf	clcd_putch@addr
  4213     0B27  0852               	movf	_saved_sp,w
  4214     0B28  160A  118A  22C1  120A  158A  	fcall	_clcd_putch
  4215                           
  4216                           ;car_black_box_def.c: 292:     clcd_putch(saved_sp[1], (0xC0 + 15));
  4217     0B2D  30CF               	movlw	207
  4218     0B2E  1283               	bcf	3,5	;RP0=0, select bank0
  4219     0B2F  1303               	bcf	3,6	;RP1=0, select bank0
  4220     0B30  00A0               	movwf	clcd_putch@addr
  4221     0B31  0853               	movf	_saved_sp+1,w
  4222     0B32  160A  118A  22C1  120A  158A  	fcall	_clcd_putch
  4223     0B37                     l424:
  4224     0B37  0008               	return
  4225     0B38                     __end_of_print_log:
  4226                           
  4227                           	psect	text3
  4228     134E                     __ptext3:	
  4229 ;; *************** function _strcpy *****************
  4230 ;; Defined at:
  4231 ;;		line 3 in file "C:\Program Files\Microchip\xc8\v3.10\pic\sources\c99\common\strcpy.c"
  4232 ;; Parameters:    Size  Location     Type
  4233 ;;  dest            1    2[COMMON] PTR unsigned char 
  4234 ;;		 -> main@event(3), 
  4235 ;;  src             2    3[COMMON] PTR const unsigned char 
  4236 ;;		 -> STR_8(3), STR_6(3), STR_5(3), STR_4(3), 
  4237 ;;		 -> STR_3(3), STR_2(3), STR_1(3), 
  4238 ;; Auto vars:     Size  Location     Type
  4239 ;;  d               1    7[COMMON] PTR unsigned char 
  4240 ;;		 -> main@event(3), 
  4241 ;; Return value:  Size  Location     Type
  4242 ;;                  1    2[COMMON] PTR unsigned char 
  4243 ;; Registers used:
  4244 ;;		wreg, fsr0l, fsr0h, status,2, status,0, pclath, btemp1
  4245 ;; Tracked objects:
  4246 ;;		On entry : 0/0
  4247 ;;		On exit  : 0/0
  4248 ;;		Unchanged: 0/0
  4249 ;; Data sizes:     COMMON   BANK0   BANK1   BANK3   BANK2
  4250 ;;      Params:         3       0       0       0       0
  4251 ;;      Locals:         1       0       0       0       0
  4252 ;;      Temps:          2       0       0       0       0
  4253 ;;      Totals:         6       0       0       0       0
  4254 ;;Total ram usage:        6 bytes
  4255 ;; Hardware stack levels used: 2
  4256 ;; Hardware stack levels required when called: 1
  4257 ;; This function calls:
  4258 ;;		Nothing
  4259 ;; This function is called by:
  4260 ;;		_main
  4261 ;; This function uses a non-reentrant model
  4262 ;;
  4263                           
  4264     134E                     _strcpy:	
  4265                           ;psect for function _strcpy
  4266                           
  4267     134E                     l2990:	
  4268                           ;incstack = 0
  4269                           ; Regs used in _strcpy: [wreg-fsr0h+status,2+status,0+pclath+btemp1]
  4270                           
  4271     134E  0872               	movf	strcpy@dest,w
  4272     134F  00F7               	movwf	strcpy@d
  4273     1350                     l2992:
  4274     1350  0874               	movf	strcpy@src+1,w
  4275     1351  00F6               	movwf	??_strcpy+1
  4276     1352  0873               	movf	strcpy@src,w
  4277     1353  00F5               	movwf	??_strcpy
  4278     1354  0AF3               	incf	strcpy@src,f
  4279     1355  1903               	skipnz
  4280     1356  0AF4               	incf	strcpy@src+1,f
  4281     1357  0876               	movf	??_strcpy+1,w
  4282     1358  1283               	bcf	3,5	;RP0=0, select bank0
  4283     1359  1303               	bcf	3,6	;RP1=0, select bank0
  4284     135A  00FF               	movwf	btemp1
  4285     135B  0875               	movf	??_strcpy,w
  4286     135C  0084               	movwf	4
  4287     135D  160A  118A  218A  160A  118A  	fcall	stringtab
  4288     1362  00FF               	movwf	btemp1
  4289     1363  0877               	movf	strcpy@d,w
  4290     1364  0AF7               	incf	strcpy@d,f
  4291     1365  0084               	movwf	4
  4292     1366  087F               	movf	btemp1,w
  4293     1367  1383               	bcf	3,7	;select IRP bank0
  4294     1368  0080               	movwf	0
  4295     1369  0800               	movf	0,w
  4296     136A  1D03               	btfss	3,2
  4297     136B  2B6D               	goto	u2641
  4298     136C  2B6E               	goto	u2640
  4299     136D                     u2641:
  4300     136D  2B50               	goto	l2992
  4301     136E                     u2640:
  4302     136E                     l1177:
  4303     136E  0008               	return
  4304     136F                     __end_of_strcpy:
  4305                           
  4306                           	psect	text4
  4307     043B                     __ptext4:	
  4308 ;; *************** function _set_time *****************
  4309 ;; Defined at:
  4310 ;;		line 434 in file "car_black_box_def.c"
  4311 ;; Parameters:    Size  Location     Type
  4312 ;;  key             1    wreg     unsigned char 
  4313 ;;  reset_flag      1   10[BANK0 ] unsigned char 
  4314 ;; Auto vars:     Size  Location     Type
  4315 ;;  key             1   14[BANK0 ] unsigned char 
  4316 ;; Return value:  Size  Location     Type
  4317 ;;                  1    wreg      unsigned char 
  4318 ;; Registers used:
  4319 ;;		wreg, fsr0l, fsr0h, status,2, status,0, pclath, btemp1, cstack
  4320 ;; Tracked objects:
  4321 ;;		On entry : 0/0
  4322 ;;		On exit  : 0/0
  4323 ;;		Unchanged: 0/0
  4324 ;; Data sizes:     COMMON   BANK0   BANK1   BANK3   BANK2
  4325 ;;      Params:         0       1       0       0       0
  4326 ;;      Locals:         0       1       0       0       0
  4327 ;;      Temps:          0       3       0       0       0
  4328 ;;      Totals:         0       5       0       0       0
  4329 ;;Total ram usage:        5 bytes
  4330 ;; Hardware stack levels used: 1
  4331 ;; Hardware stack levels required when called: 3
  4332 ;; This function calls:
  4333 ;;		___awdiv
  4334 ;;		___awmod
  4335 ;;		___bmul
  4336 ;;		_clcd_print
  4337 ;;		_clcd_putch
  4338 ;;		_clear_screen
  4339 ;;		_get_time
  4340 ;;		_save_time
  4341 ;; This function is called by:
  4342 ;;		_main
  4343 ;; This function uses a non-reentrant model
  4344 ;;
  4345                           
  4346     043B                     _set_time:	
  4347                           ;psect for function _set_time
  4348                           
  4349                           
  4350                           ;incstack = 0
  4351                           ; Regs used in _set_time: [wreg-fsr0h+status,2+status,0+pclath+btemp1+cstack]
  4352                           ;set_time@key stored from wreg
  4353     043B  1283               	bcf	3,5	;RP0=0, select bank0
  4354     043C  1303               	bcf	3,6	;RP1=0, select bank0
  4355     043D  00AE               	movwf	set_time@key
  4356     043E                     l4442:
  4357                           
  4358                           ;car_black_box_def.c: 434: unsigned char set_time(unsigned char key, unsigned char reset
      +                          _flag);car_black_box_def.c: 435: {;car_black_box_def.c: 436:     static unsigned char hr
      +                          , min, sec;;car_black_box_def.c: 437:     static unsigned char field, blink_flag;;car_bl
      +                          ack_box_def.c: 438:     static unsigned int delay;;car_black_box_def.c: 440:     if (res
      +                          et_flag == 0x55)
  4359     043E  3055               	movlw	85
  4360     043F  062A               	xorwf	set_time@reset_flag,w
  4361     0440  1D03               	btfss	3,2
  4362     0441  2C43               	goto	u4661
  4363     0442  2C44               	goto	u4660
  4364     0443                     u4661:
  4365     0443  2CAF               	goto	l4468
  4366     0444                     u4660:
  4367     0444                     l4444:
  4368                           
  4369                           ;car_black_box_def.c: 441:     {;car_black_box_def.c: 442:         get_time();
  4370     0444  120A  158A  215B  120A  118A  	fcall	_get_time
  4371     0449                     l4446:
  4372                           
  4373                           ;car_black_box_def.c: 444:         hr = ((clock_reg[0] >> 4) & 0x03);
  4374     0449  1283               	bcf	3,5	;RP0=0, select bank0
  4375     044A  1303               	bcf	3,6	;RP1=0, select bank0
  4376     044B  0858               	movf	_clock_reg,w
  4377     044C  00AB               	movwf	??_set_time
  4378     044D  3004               	movlw	4
  4379     044E                     u4675:
  4380     044E  1003               	clrc
  4381     044F  0CAB               	rrf	??_set_time,f
  4382     0450  3EFF               	addlw	-1
  4383     0451  1D03               	skipz
  4384     0452  2C4E               	goto	u4675
  4385     0453  082B               	movf	??_set_time,w
  4386     0454  00E6               	movwf	set_time@hr
  4387     0455                     l4448:
  4388     0455  3003               	movlw	3
  4389     0456  05E6               	andwf	set_time@hr,f
  4390                           
  4391                           ;car_black_box_def.c: 445:         hr = hr * 10 + (clock_reg[0] & 0x03);
  4392     0457  3003               	movlw	3
  4393     0458  0558               	andwf	_clock_reg,w
  4394     0459  00AB               	movwf	??_set_time
  4395     045A  300A               	movlw	10
  4396     045B  00F2               	movwf	___bmul@multiplicand
  4397     045C  0866               	movf	set_time@hr,w
  4398     045D  160A  118A  229B  120A  118A  	fcall	___bmul
  4399     0462  1283               	bcf	3,5	;RP0=0, select bank0
  4400     0463  1303               	bcf	3,6	;RP1=0, select bank0
  4401     0464  072B               	addwf	??_set_time,w
  4402     0465  00E6               	movwf	set_time@hr
  4403     0466                     l4450:
  4404                           
  4405                           ;car_black_box_def.c: 447:         min = ((clock_reg[1] >> 4) & 0x07);
  4406     0466  0859               	movf	_clock_reg+1,w
  4407     0467  00AB               	movwf	??_set_time
  4408     0468  3004               	movlw	4
  4409     0469                     u4685:
  4410     0469  1003               	clrc
  4411     046A  0CAB               	rrf	??_set_time,f
  4412     046B  3EFF               	addlw	-1
  4413     046C  1D03               	skipz
  4414     046D  2C69               	goto	u4685
  4415     046E  082B               	movf	??_set_time,w
  4416     046F  00E5               	movwf	set_time@min
  4417     0470                     l4452:
  4418     0470  3007               	movlw	7
  4419     0471  05E5               	andwf	set_time@min,f
  4420                           
  4421                           ;car_black_box_def.c: 448:         min = (min * 10) + ((clock_reg[1] & 0x0F));
  4422     0472  300F               	movlw	15
  4423     0473  0559               	andwf	_clock_reg+1,w
  4424     0474  00AB               	movwf	??_set_time
  4425     0475  300A               	movlw	10
  4426     0476  00F2               	movwf	___bmul@multiplicand
  4427     0477  0865               	movf	set_time@min,w
  4428     0478  160A  118A  229B  120A  118A  	fcall	___bmul
  4429     047D  1283               	bcf	3,5	;RP0=0, select bank0
  4430     047E  1303               	bcf	3,6	;RP1=0, select bank0
  4431     047F  072B               	addwf	??_set_time,w
  4432     0480  00E5               	movwf	set_time@min
  4433     0481                     l4454:
  4434                           
  4435                           ;car_black_box_def.c: 450:         sec = ((clock_reg[2] >> 4) & 0x07);
  4436     0481  085A               	movf	_clock_reg+2,w
  4437     0482  00AB               	movwf	??_set_time
  4438     0483  3004               	movlw	4
  4439     0484                     u4695:
  4440     0484  1003               	clrc
  4441     0485  0CAB               	rrf	??_set_time,f
  4442     0486  3EFF               	addlw	-1
  4443     0487  1D03               	skipz
  4444     0488  2C84               	goto	u4695
  4445     0489  082B               	movf	??_set_time,w
  4446     048A  00E4               	movwf	set_time@sec
  4447     048B                     l4456:
  4448     048B  3007               	movlw	7
  4449     048C  05E4               	andwf	set_time@sec,f
  4450                           
  4451                           ;car_black_box_def.c: 451:         sec = (sec * 10) + ((clock_reg[2] & 0x0F));
  4452     048D  300F               	movlw	15
  4453     048E  055A               	andwf	_clock_reg+2,w
  4454     048F  00AB               	movwf	??_set_time
  4455     0490  300A               	movlw	10
  4456     0491  00F2               	movwf	___bmul@multiplicand
  4457     0492  0864               	movf	set_time@sec,w
  4458     0493  160A  118A  229B  120A  118A  	fcall	___bmul
  4459     0498  1283               	bcf	3,5	;RP0=0, select bank0
  4460     0499  1303               	bcf	3,6	;RP1=0, select bank0
  4461     049A  072B               	addwf	??_set_time,w
  4462     049B  00E4               	movwf	set_time@sec
  4463     049C                     l4458:
  4464                           
  4465                           ;car_black_box_def.c: 453:         field = 0;
  4466     049C  01E3               	clrf	set_time@field
  4467     049D                     l4460:
  4468                           
  4469                           ;car_black_box_def.c: 454:         blink_flag = 0;
  4470     049D  01E2               	clrf	set_time@blink_flag
  4471     049E                     l4462:
  4472                           
  4473                           ;car_black_box_def.c: 455:         delay = 5;
  4474     049E  3005               	movlw	5
  4475     049F  00DD               	movwf	set_time@delay
  4476     04A0  3000               	movlw	0
  4477     04A1  00DE               	movwf	set_time@delay+1
  4478     04A2                     l4464:
  4479                           
  4480                           ;car_black_box_def.c: 456:         key = 0x3F;
  4481     04A2  303F               	movlw	63
  4482     04A3  00AE               	movwf	set_time@key
  4483     04A4                     l4466:
  4484                           
  4485                           ;car_black_box_def.c: 457:         clcd_print("HH:MM:SS", (0x80 + 4));
  4486     04A4  3033               	movlw	low (STR_32| (0+32768))
  4487     04A5  00F6               	movwf	clcd_print@str
  4488     04A6  3091               	movlw	high (STR_32| (0+32768))
  4489     04A7  00F7               	movwf	clcd_print@str+1
  4490     04A8  3084               	movlw	132
  4491     04A9  00F8               	movwf	clcd_print@addr
  4492     04AA  160A  118A  2494  120A  118A  	fcall	_clcd_print
  4493     04AF                     l4468:
  4494                           
  4495                           ;car_black_box_def.c: 461:     if (key == 0x37 && sw_p == 0x01)
  4496     04AF  3037               	movlw	55
  4497     04B0  1283               	bcf	3,5	;RP0=0, select bank0
  4498     04B1  1303               	bcf	3,6	;RP1=0, select bank0
  4499     04B2  062E               	xorwf	set_time@key,w
  4500     04B3  1D03               	btfss	3,2
  4501     04B4  2CB6               	goto	u4701
  4502     04B5  2CB7               	goto	u4700
  4503     04B6                     u4701:
  4504     04B6  2CEB               	goto	l4496
  4505     04B7                     u4700:
  4506     04B7                     l4470:
  4507     04B7  036F               	decf	_sw_p,w
  4508     04B8  1D03               	btfss	3,2
  4509     04B9  2CBB               	goto	u4711
  4510     04BA  2CBC               	goto	u4710
  4511     04BB                     u4711:
  4512     04BB  2CEB               	goto	l4496
  4513     04BC                     u4710:
  4514     04BC                     l4472:
  4515                           
  4516                           ;car_black_box_def.c: 462:     {;car_black_box_def.c: 463:         if (field == 0)
  4517     04BC  0863               	movf	set_time@field,w
  4518     04BD  1D03               	btfss	3,2
  4519     04BE  2CC0               	goto	u4721
  4520     04BF  2CC1               	goto	u4720
  4521     04C0                     u4721:
  4522     04C0  2CCB               	goto	l4480
  4523     04C1                     u4720:
  4524     04C1                     l4474:
  4525                           
  4526                           ;car_black_box_def.c: 464:         {;car_black_box_def.c: 465:             sec++;
  4527     04C1  3001               	movlw	1
  4528     04C2  07E4               	addwf	set_time@sec,f
  4529     04C3                     l4476:
  4530                           
  4531                           ;car_black_box_def.c: 466:             if (sec >= 60)
  4532     04C3  303C               	movlw	60
  4533     04C4  0264               	subwf	set_time@sec,w
  4534     04C5  1C03               	skipc
  4535     04C6  2CC8               	goto	u4731
  4536     04C7  2CC9               	goto	u4730
  4537     04C8                     u4731:
  4538     04C8  2CE9               	goto	l480
  4539     04C9                     u4730:
  4540     04C9                     l4478:
  4541                           
  4542                           ;car_black_box_def.c: 467:                 sec = 0;
  4543     04C9  01E4               	clrf	set_time@sec
  4544     04CA  2CE9               	goto	l480
  4545     04CB                     l4480:
  4546     04CB  0363               	decf	set_time@field,w
  4547     04CC  1D03               	btfss	3,2
  4548     04CD  2CCF               	goto	u4741
  4549     04CE  2CD0               	goto	u4740
  4550     04CF                     u4741:
  4551     04CF  2CDA               	goto	l4488
  4552     04D0                     u4740:
  4553     04D0                     l4482:
  4554                           
  4555                           ;car_black_box_def.c: 470:         {;car_black_box_def.c: 471:             min++;
  4556     04D0  3001               	movlw	1
  4557     04D1  07E5               	addwf	set_time@min,f
  4558     04D2                     l4484:
  4559                           
  4560                           ;car_black_box_def.c: 472:             if (min >= 60)
  4561     04D2  303C               	movlw	60
  4562     04D3  0265               	subwf	set_time@min,w
  4563     04D4  1C03               	skipc
  4564     04D5  2CD7               	goto	u4751
  4565     04D6  2CD8               	goto	u4750
  4566     04D7                     u4751:
  4567     04D7  2CE9               	goto	l480
  4568     04D8                     u4750:
  4569     04D8                     l4486:
  4570                           
  4571                           ;car_black_box_def.c: 473:             {;car_black_box_def.c: 474:                 min =
      +                           0;
  4572     04D8  01E5               	clrf	set_time@min
  4573     04D9  2CE9               	goto	l480
  4574     04DA                     l4488:
  4575     04DA  3002               	movlw	2
  4576     04DB  0663               	xorwf	set_time@field,w
  4577     04DC  1D03               	btfss	3,2
  4578     04DD  2CDF               	goto	u4761
  4579     04DE  2CE0               	goto	u4760
  4580     04DF                     u4761:
  4581     04DF  2CE9               	goto	l480
  4582     04E0                     u4760:
  4583     04E0                     l4490:
  4584                           
  4585                           ;car_black_box_def.c: 478:         {;car_black_box_def.c: 479:             hr++;
  4586     04E0  3001               	movlw	1
  4587     04E1  07E6               	addwf	set_time@hr,f
  4588     04E2                     l4492:
  4589                           
  4590                           ;car_black_box_def.c: 480:             if (hr >= 24)
  4591     04E2  3018               	movlw	24
  4592     04E3  0266               	subwf	set_time@hr,w
  4593     04E4  1C03               	skipc
  4594     04E5  2CE7               	goto	u4771
  4595     04E6  2CE8               	goto	u4770
  4596     04E7                     u4771:
  4597     04E7  2CE9               	goto	l480
  4598     04E8                     u4770:
  4599     04E8                     l4494:
  4600                           
  4601                           ;car_black_box_def.c: 481:             {;car_black_box_def.c: 482:                 hr = 
      +                          0;
  4602     04E8  01E6               	clrf	set_time@hr
  4603     04E9                     l480:
  4604                           
  4605                           ;car_black_box_def.c: 485:         blink_flag = 0;
  4606     04E9  01E2               	clrf	set_time@blink_flag
  4607                           
  4608                           ;car_black_box_def.c: 486:     }
  4609     04EA  2D52               	goto	l4534
  4610     04EB                     l4496:
  4611     04EB  302F               	movlw	47
  4612     04EC  062E               	xorwf	set_time@key,w
  4613     04ED  1D03               	btfss	3,2
  4614     04EE  2CF0               	goto	u4781
  4615     04EF  2CF1               	goto	u4780
  4616     04F0                     u4781:
  4617     04F0  2D01               	goto	l4506
  4618     04F1                     u4780:
  4619     04F1                     l4498:
  4620     04F1  036F               	decf	_sw_p,w
  4621     04F2  1D03               	btfss	3,2
  4622     04F3  2CF5               	goto	u4791
  4623     04F4  2CF6               	goto	u4790
  4624     04F5                     u4791:
  4625     04F5  2D01               	goto	l4506
  4626     04F6                     u4790:
  4627     04F6                     l4500:
  4628                           
  4629                           ;car_black_box_def.c: 489:     {;car_black_box_def.c: 490:         if (field < 2)
  4630     04F6  3002               	movlw	2
  4631     04F7  0263               	subwf	set_time@field,w
  4632     04F8  1803               	skipnc
  4633     04F9  2CFB               	goto	u4801
  4634     04FA  2CFC               	goto	u4800
  4635     04FB                     u4801:
  4636     04FB  2CFF               	goto	l4504
  4637     04FC                     u4800:
  4638     04FC                     l4502:
  4639                           
  4640                           ;car_black_box_def.c: 491:             field++;
  4641     04FC  3001               	movlw	1
  4642     04FD  07E3               	addwf	set_time@field,f
  4643     04FE  2D52               	goto	l4534
  4644     04FF                     l4504:
  4645                           
  4646                           ;car_black_box_def.c: 493:             field = 0;
  4647     04FF  01E3               	clrf	set_time@field
  4648     0500  2D52               	goto	l4534
  4649     0501                     l4506:
  4650     0501  3037               	movlw	55
  4651     0502  062E               	xorwf	set_time@key,w
  4652     0503  1D03               	btfss	3,2
  4653     0504  2D06               	goto	u4811
  4654     0505  2D07               	goto	u4810
  4655     0506                     u4811:
  4656     0506  2D11               	goto	l4518
  4657     0507                     u4810:
  4658     0507                     l4508:
  4659     0507  3002               	movlw	2
  4660     0508  066F               	xorwf	_sw_p,w
  4661     0509  1D03               	btfss	3,2
  4662     050A  2D0C               	goto	u4821
  4663     050B  2D0D               	goto	u4820
  4664     050C                     u4821:
  4665     050C  2D11               	goto	l4518
  4666     050D                     u4820:
  4667     050D                     l4510:
  4668                           
  4669                           ;car_black_box_def.c: 497:     {;car_black_box_def.c: 498:         return_time = 5;
  4670     050D  3005               	movlw	5
  4671     050E  00EB               	movwf	_return_time
  4672     050F                     l4512:
  4673                           
  4674                           ;car_black_box_def.c: 499:         return 0xF1;
  4675     050F  30F1               	movlw	241
  4676     0510  2FF2               	goto	l492
  4677     0511                     l4518:
  4678     0511  302F               	movlw	47
  4679     0512  062E               	xorwf	set_time@key,w
  4680     0513  1D03               	btfss	3,2
  4681     0514  2D16               	goto	u4831
  4682     0515  2D17               	goto	u4830
  4683     0516                     u4831:
  4684     0516  2D52               	goto	l4534
  4685     0517                     u4830:
  4686     0517                     l4520:
  4687     0517  3002               	movlw	2
  4688     0518  066F               	xorwf	_sw_p,w
  4689     0519  1D03               	btfss	3,2
  4690     051A  2D1C               	goto	u4841
  4691     051B  2D1D               	goto	u4840
  4692     051C                     u4841:
  4693     051C  2D52               	goto	l4534
  4694     051D                     u4840:
  4695     051D                     l4522:
  4696                           
  4697                           ;car_black_box_def.c: 503:     {;car_black_box_def.c: 504:         save_time(hr, min, se
      +                          c);
  4698     051D  0865               	movf	set_time@min,w
  4699     051E  00A0               	movwf	save_time@min
  4700     051F  0864               	movf	set_time@sec,w
  4701     0520  00A1               	movwf	save_time@sec
  4702     0521  0866               	movf	set_time@hr,w
  4703     0522  120A  158A  2483  120A  118A  	fcall	_save_time
  4704                           
  4705                           ;car_black_box_def.c: 505:         clear_screen();
  4706     0527  160A  118A  2266  120A  118A  	fcall	_clear_screen
  4707     052C                     l4524:
  4708                           
  4709                           ;car_black_box_def.c: 506:         clcd_print("Time set", (0x80 + 0));
  4710     052C  3057               	movlw	low (STR_33| (0+32768))
  4711     052D  00F6               	movwf	clcd_print@str
  4712     052E  3091               	movlw	high (STR_33| (0+32768))
  4713     052F  00F7               	movwf	clcd_print@str+1
  4714     0530  3080               	movlw	128
  4715     0531  00F8               	movwf	clcd_print@addr
  4716     0532  160A  118A  2494  120A  118A  	fcall	_clcd_print
  4717     0537                     l4526:
  4718                           
  4719                           ;car_black_box_def.c: 507:         clcd_print("Successful", (0xC0 + 0));
  4720     0537  300A               	movlw	low (STR_34| (0+32768))
  4721     0538  00F6               	movwf	clcd_print@str
  4722     0539  3091               	movlw	high (STR_34| (0+32768))
  4723     053A  00F7               	movwf	clcd_print@str+1
  4724     053B  30C0               	movlw	192
  4725     053C  00F8               	movwf	clcd_print@addr
  4726     053D  160A  118A  2494  120A  118A  	fcall	_clcd_print
  4727     0542                     l4528:
  4728                           
  4729                           ;car_black_box_def.c: 508:         _delay((unsigned long)((2000)*(20000000/4000.0)));
  4730     0542  3033               	movlw	51
  4731     0543  1283               	bcf	3,5	;RP0=0, select bank0
  4732     0544  1303               	bcf	3,6	;RP1=0, select bank0
  4733     0545  00AD               	movwf	??_set_time+2
  4734     0546  30BB               	movlw	187
  4735     0547  00AC               	movwf	??_set_time+1
  4736     0548  30DF               	movlw	223
  4737     0549  00AB               	movwf	??_set_time
  4738     054A                     u5577:
  4739     054A  0BAB               	decfsz	??_set_time,f
  4740     054B  2D4A               	goto	u5577
  4741     054C  0BAC               	decfsz	??_set_time+1,f
  4742     054D  2D4A               	goto	u5577
  4743     054E  0BAD               	decfsz	??_set_time+2,f
  4744     054F  2D4A               	goto	u5577
  4745     0550                     l4530:
  4746                           
  4747                           ;car_black_box_def.c: 509:         return 0xF0;
  4748     0550  30F0               	movlw	240
  4749     0551  2FF2               	goto	l492
  4750     0552                     l4534:
  4751                           
  4752                           ;car_black_box_def.c: 513:     if (field == 0)
  4753     0552  0863               	movf	set_time@field,w
  4754     0553  1D03               	btfss	3,2
  4755     0554  2D56               	goto	u4851
  4756     0555  2D57               	goto	u4850
  4757     0556                     u4851:
  4758     0556  2E34               	goto	l4552
  4759     0557                     u4850:
  4760     0557                     l4536:
  4761                           
  4762                           ;car_black_box_def.c: 514:     {;car_black_box_def.c: 515:         clcd_putch((hr / 10) 
      +                          + '0', (0xC0 + 4));
  4763     0557  30C4               	movlw	196
  4764     0558  00A0               	movwf	clcd_putch@addr
  4765     0559  300A               	movlw	10
  4766     055A  00F2               	movwf	___awdiv@divisor
  4767     055B  3000               	movlw	0
  4768     055C  00F3               	movwf	___awdiv@divisor+1
  4769     055D  0866               	movf	set_time@hr,w
  4770     055E  00AB               	movwf	??_set_time
  4771     055F  01AC               	clrf	??_set_time+1
  4772     0560  082B               	movf	??_set_time,w
  4773     0561  00F4               	movwf	___awdiv@dividend
  4774     0562  082C               	movf	??_set_time+1,w
  4775     0563  00F5               	movwf	___awdiv@dividend+1
  4776     0564  120A  158A  20F8  120A  118A  	fcall	___awdiv
  4777     0569  0872               	movf	?___awdiv,w
  4778     056A  3E30               	addlw	48
  4779     056B  160A  118A  22C1  120A  118A  	fcall	_clcd_putch
  4780                           
  4781                           ;car_black_box_def.c: 516:         clcd_putch((hr % 10) + '0', (0xC0 + 5));
  4782     0570  30C5               	movlw	197
  4783     0571  1283               	bcf	3,5	;RP0=0, select bank0
  4784     0572  1303               	bcf	3,6	;RP1=0, select bank0
  4785     0573  00A0               	movwf	clcd_putch@addr
  4786     0574  300A               	movlw	10
  4787     0575  00F2               	movwf	___awmod@divisor
  4788     0576  3000               	movlw	0
  4789     0577  00F3               	movwf	___awmod@divisor+1
  4790     0578  0866               	movf	set_time@hr,w
  4791     0579  00AB               	movwf	??_set_time
  4792     057A  01AC               	clrf	??_set_time+1
  4793     057B  082B               	movf	??_set_time,w
  4794     057C  00F4               	movwf	___awmod@dividend
  4795     057D  082C               	movf	??_set_time+1,w
  4796     057E  00F5               	movwf	___awmod@dividend+1
  4797     057F  160A  118A  26F8  120A  118A  	fcall	___awmod
  4798     0584  0872               	movf	?___awmod,w
  4799     0585  3E30               	addlw	48
  4800     0586  160A  118A  22C1  120A  118A  	fcall	_clcd_putch
  4801                           
  4802                           ;car_black_box_def.c: 517:         clcd_putch(':', (0xC0 + 6));
  4803     058B  30C6               	movlw	198
  4804     058C  1283               	bcf	3,5	;RP0=0, select bank0
  4805     058D  1303               	bcf	3,6	;RP1=0, select bank0
  4806     058E  00A0               	movwf	clcd_putch@addr
  4807     058F  303A               	movlw	58
  4808     0590  160A  118A  22C1  120A  118A  	fcall	_clcd_putch
  4809                           
  4810                           ;car_black_box_def.c: 518:         clcd_putch((min / 10) + '0', (0xC0 + 7));
  4811     0595  30C7               	movlw	199
  4812     0596  1283               	bcf	3,5	;RP0=0, select bank0
  4813     0597  1303               	bcf	3,6	;RP1=0, select bank0
  4814     0598  00A0               	movwf	clcd_putch@addr
  4815     0599  300A               	movlw	10
  4816     059A  00F2               	movwf	___awdiv@divisor
  4817     059B  3000               	movlw	0
  4818     059C  00F3               	movwf	___awdiv@divisor+1
  4819     059D  0865               	movf	set_time@min,w
  4820     059E  00AB               	movwf	??_set_time
  4821     059F  01AC               	clrf	??_set_time+1
  4822     05A0  082B               	movf	??_set_time,w
  4823     05A1  00F4               	movwf	___awdiv@dividend
  4824     05A2  082C               	movf	??_set_time+1,w
  4825     05A3  00F5               	movwf	___awdiv@dividend+1
  4826     05A4  120A  158A  20F8  120A  118A  	fcall	___awdiv
  4827     05A9  0872               	movf	?___awdiv,w
  4828     05AA  3E30               	addlw	48
  4829     05AB  160A  118A  22C1  120A  118A  	fcall	_clcd_putch
  4830                           
  4831                           ;car_black_box_def.c: 519:         clcd_putch((min % 10) + '0', (0xC0 + 8));
  4832     05B0  30C8               	movlw	200
  4833     05B1  1283               	bcf	3,5	;RP0=0, select bank0
  4834     05B2  1303               	bcf	3,6	;RP1=0, select bank0
  4835     05B3  00A0               	movwf	clcd_putch@addr
  4836     05B4  300A               	movlw	10
  4837     05B5  00F2               	movwf	___awmod@divisor
  4838     05B6  3000               	movlw	0
  4839     05B7  00F3               	movwf	___awmod@divisor+1
  4840     05B8  0865               	movf	set_time@min,w
  4841     05B9  00AB               	movwf	??_set_time
  4842     05BA  01AC               	clrf	??_set_time+1
  4843     05BB  082B               	movf	??_set_time,w
  4844     05BC  00F4               	movwf	___awmod@dividend
  4845     05BD  082C               	movf	??_set_time+1,w
  4846     05BE  00F5               	movwf	___awmod@dividend+1
  4847     05BF  160A  118A  26F8  120A  118A  	fcall	___awmod
  4848     05C4  0872               	movf	?___awmod,w
  4849     05C5  3E30               	addlw	48
  4850     05C6  160A  118A  22C1  120A  118A  	fcall	_clcd_putch
  4851                           
  4852                           ;car_black_box_def.c: 520:         clcd_putch(':', (0xC0 + 9));
  4853     05CB  30C9               	movlw	201
  4854     05CC  1283               	bcf	3,5	;RP0=0, select bank0
  4855     05CD  1303               	bcf	3,6	;RP1=0, select bank0
  4856     05CE  00A0               	movwf	clcd_putch@addr
  4857     05CF  303A               	movlw	58
  4858     05D0  160A  118A  22C1  120A  118A  	fcall	_clcd_putch
  4859     05D5                     l4538:
  4860                           
  4861                           ;car_black_box_def.c: 522:         if(--delay == 0)
  4862     05D5  3001               	movlw	1
  4863     05D6  1283               	bcf	3,5	;RP0=0, select bank0
  4864     05D7  1303               	bcf	3,6	;RP1=0, select bank0
  4865     05D8  02DD               	subwf	set_time@delay,f
  4866     05D9  3000               	movlw	0
  4867     05DA  1C03               	skipc
  4868     05DB  03DE               	decf	set_time@delay+1,f
  4869     05DC  02DE               	subwf	set_time@delay+1,f
  4870     05DD  085D               	movf	set_time@delay,w
  4871     05DE  045E               	iorwf	set_time@delay+1,w
  4872     05DF  1D03               	btfss	3,2
  4873     05E0  2DE2               	goto	u4861
  4874     05E1  2DE3               	goto	u4860
  4875     05E2                     u4861:
  4876     05E2  2F0F               	goto	l4570
  4877     05E3                     u4860:
  4878     05E3                     l4540:
  4879                           
  4880                           ;car_black_box_def.c: 523:         {;car_black_box_def.c: 524:             delay = 5;
  4881     05E3  3005               	movlw	5
  4882     05E4  00DD               	movwf	set_time@delay
  4883     05E5  3000               	movlw	0
  4884     05E6  00DE               	movwf	set_time@delay+1
  4885     05E7                     l4542:
  4886                           
  4887                           ;car_black_box_def.c: 525:             if(blink_flag == 0)
  4888     05E7  0862               	movf	set_time@blink_flag,w
  4889     05E8  1D03               	btfss	3,2
  4890     05E9  2DEB               	goto	u4871
  4891     05EA  2DEC               	goto	u4870
  4892     05EB                     u4871:
  4893     05EB  2E25               	goto	l4548
  4894     05EC                     u4870:
  4895     05EC                     l4544:
  4896                           
  4897                           ;car_black_box_def.c: 526:             {;car_black_box_def.c: 527:                 clcd_
      +                          putch((sec / 10) + '0', (0xC0 + 10));
  4898     05EC  30CA               	movlw	202
  4899     05ED  00A0               	movwf	clcd_putch@addr
  4900     05EE  300A               	movlw	10
  4901     05EF  00F2               	movwf	___awdiv@divisor
  4902     05F0  3000               	movlw	0
  4903     05F1  00F3               	movwf	___awdiv@divisor+1
  4904     05F2  0864               	movf	set_time@sec,w
  4905     05F3  00AB               	movwf	??_set_time
  4906     05F4  01AC               	clrf	??_set_time+1
  4907     05F5  082B               	movf	??_set_time,w
  4908     05F6  00F4               	movwf	___awdiv@dividend
  4909     05F7  082C               	movf	??_set_time+1,w
  4910     05F8  00F5               	movwf	___awdiv@dividend+1
  4911     05F9  120A  158A  20F8  120A  118A  	fcall	___awdiv
  4912     05FE  0872               	movf	?___awdiv,w
  4913     05FF  3E30               	addlw	48
  4914     0600  160A  118A  22C1  120A  118A  	fcall	_clcd_putch
  4915                           
  4916                           ;car_black_box_def.c: 528:                 clcd_putch((sec % 10) + '0', (0xC0 + 11));
  4917     0605  30CB               	movlw	203
  4918     0606  1283               	bcf	3,5	;RP0=0, select bank0
  4919     0607  1303               	bcf	3,6	;RP1=0, select bank0
  4920     0608  00A0               	movwf	clcd_putch@addr
  4921     0609  300A               	movlw	10
  4922     060A  00F2               	movwf	___awmod@divisor
  4923     060B  3000               	movlw	0
  4924     060C  00F3               	movwf	___awmod@divisor+1
  4925     060D  0864               	movf	set_time@sec,w
  4926     060E  00AB               	movwf	??_set_time
  4927     060F  01AC               	clrf	??_set_time+1
  4928     0610  082B               	movf	??_set_time,w
  4929     0611  00F4               	movwf	___awmod@dividend
  4930     0612  082C               	movf	??_set_time+1,w
  4931     0613  00F5               	movwf	___awmod@dividend+1
  4932     0614  160A  118A  26F8  120A  118A  	fcall	___awmod
  4933     0619  0872               	movf	?___awmod,w
  4934     061A  3E30               	addlw	48
  4935     061B  160A  118A  22C1  120A  118A  	fcall	_clcd_putch
  4936     0620                     l4546:
  4937                           
  4938                           ;car_black_box_def.c: 529:                 blink_flag = 1;
  4939     0620  3001               	movlw	1
  4940     0621  1283               	bcf	3,5	;RP0=0, select bank0
  4941     0622  1303               	bcf	3,6	;RP1=0, select bank0
  4942     0623  00E2               	movwf	set_time@blink_flag
  4943                           
  4944                           ;car_black_box_def.c: 530:             }
  4945     0624  2F0F               	goto	l4570
  4946     0625                     l4548:
  4947                           
  4948                           ;car_black_box_def.c: 532:             {;car_black_box_def.c: 533:                 clcd_
      +                          print("  ", (0xC0 + 10));
  4949     0625  3072               	movlw	low (STR_35| (0+32768))
  4950     0626  00F6               	movwf	clcd_print@str
  4951     0627  3091               	movlw	high (STR_35| (0+32768))
  4952     0628  00F7               	movwf	clcd_print@str+1
  4953     0629  30CA               	movlw	202
  4954     062A  00F8               	movwf	clcd_print@addr
  4955     062B  160A  118A  2494  120A  118A  	fcall	_clcd_print
  4956     0630                     l4550:
  4957                           
  4958                           ;car_black_box_def.c: 534:                 blink_flag = 0;
  4959     0630  1283               	bcf	3,5	;RP0=0, select bank0
  4960     0631  1303               	bcf	3,6	;RP1=0, select bank0
  4961     0632  01E2               	clrf	set_time@blink_flag
  4962     0633  2F0F               	goto	l4570
  4963     0634                     l4552:
  4964     0634  0363               	decf	set_time@field,w
  4965     0635  1D03               	btfss	3,2
  4966     0636  2E38               	goto	u4881
  4967     0637  2E39               	goto	u4880
  4968     0638                     u4881:
  4969     0638  2F0F               	goto	l4570
  4970     0639                     u4880:
  4971     0639                     l4554:
  4972                           
  4973                           ;car_black_box_def.c: 540:     {;car_black_box_def.c: 541:         clcd_putch((hr / 10) 
      +                          + '0', (0xC0 + 4));
  4974     0639  30C4               	movlw	196
  4975     063A  00A0               	movwf	clcd_putch@addr
  4976     063B  300A               	movlw	10
  4977     063C  00F2               	movwf	___awdiv@divisor
  4978     063D  3000               	movlw	0
  4979     063E  00F3               	movwf	___awdiv@divisor+1
  4980     063F  0866               	movf	set_time@hr,w
  4981     0640  00AB               	movwf	??_set_time
  4982     0641  01AC               	clrf	??_set_time+1
  4983     0642  082B               	movf	??_set_time,w
  4984     0643  00F4               	movwf	___awdiv@dividend
  4985     0644  082C               	movf	??_set_time+1,w
  4986     0645  00F5               	movwf	___awdiv@dividend+1
  4987     0646  120A  158A  20F8  120A  118A  	fcall	___awdiv
  4988     064B  0872               	movf	?___awdiv,w
  4989     064C  3E30               	addlw	48
  4990     064D  160A  118A  22C1  120A  118A  	fcall	_clcd_putch
  4991                           
  4992                           ;car_black_box_def.c: 542:         clcd_putch((hr % 10) + '0', (0xC0 + 5));
  4993     0652  30C5               	movlw	197
  4994     0653  1283               	bcf	3,5	;RP0=0, select bank0
  4995     0654  1303               	bcf	3,6	;RP1=0, select bank0
  4996     0655  00A0               	movwf	clcd_putch@addr
  4997     0656  300A               	movlw	10
  4998     0657  00F2               	movwf	___awmod@divisor
  4999     0658  3000               	movlw	0
  5000     0659  00F3               	movwf	___awmod@divisor+1
  5001     065A  0866               	movf	set_time@hr,w
  5002     065B  00AB               	movwf	??_set_time
  5003     065C  01AC               	clrf	??_set_time+1
  5004     065D  082B               	movf	??_set_time,w
  5005     065E  00F4               	movwf	___awmod@dividend
  5006     065F  082C               	movf	??_set_time+1,w
  5007     0660  00F5               	movwf	___awmod@dividend+1
  5008     0661  160A  118A  26F8  120A  118A  	fcall	___awmod
  5009     0666  0872               	movf	?___awmod,w
  5010     0667  3E30               	addlw	48
  5011     0668  160A  118A  22C1  120A  118A  	fcall	_clcd_putch
  5012                           
  5013                           ;car_black_box_def.c: 543:         clcd_putch(':', (0xC0 + 6));
  5014     066D  30C6               	movlw	198
  5015     066E  1283               	bcf	3,5	;RP0=0, select bank0
  5016     066F  1303               	bcf	3,6	;RP1=0, select bank0
  5017     0670  00A0               	movwf	clcd_putch@addr
  5018     0671  303A               	movlw	58
  5019     0672  160A  118A  22C1  120A  118A  	fcall	_clcd_putch
  5020                           
  5021                           ;car_black_box_def.c: 544:         clcd_putch(':', (0xC0 + 9));
  5022     0677  30C9               	movlw	201
  5023     0678  1283               	bcf	3,5	;RP0=0, select bank0
  5024     0679  1303               	bcf	3,6	;RP1=0, select bank0
  5025     067A  00A0               	movwf	clcd_putch@addr
  5026     067B  303A               	movlw	58
  5027     067C  160A  118A  22C1  120A  118A  	fcall	_clcd_putch
  5028                           
  5029                           ;car_black_box_def.c: 545:         clcd_putch((sec / 10) + '0', (0xC0 + 10));
  5030     0681  30CA               	movlw	202
  5031     0682  1283               	bcf	3,5	;RP0=0, select bank0
  5032     0683  1303               	bcf	3,6	;RP1=0, select bank0
  5033     0684  00A0               	movwf	clcd_putch@addr
  5034     0685  300A               	movlw	10
  5035     0686  00F2               	movwf	___awdiv@divisor
  5036     0687  3000               	movlw	0
  5037     0688  00F3               	movwf	___awdiv@divisor+1
  5038     0689  0864               	movf	set_time@sec,w
  5039     068A  00AB               	movwf	??_set_time
  5040     068B  01AC               	clrf	??_set_time+1
  5041     068C  082B               	movf	??_set_time,w
  5042     068D  00F4               	movwf	___awdiv@dividend
  5043     068E  082C               	movf	??_set_time+1,w
  5044     068F  00F5               	movwf	___awdiv@dividend+1
  5045     0690  120A  158A  20F8  120A  118A  	fcall	___awdiv
  5046     0695  0872               	movf	?___awdiv,w
  5047     0696  3E30               	addlw	48
  5048     0697  160A  118A  22C1  120A  118A  	fcall	_clcd_putch
  5049                           
  5050                           ;car_black_box_def.c: 546:         clcd_putch((sec % 10) + '0', (0xC0 + 11));
  5051     069C  30CB               	movlw	203
  5052     069D  1283               	bcf	3,5	;RP0=0, select bank0
  5053     069E  1303               	bcf	3,6	;RP1=0, select bank0
  5054     069F  00A0               	movwf	clcd_putch@addr
  5055     06A0  300A               	movlw	10
  5056     06A1  00F2               	movwf	___awmod@divisor
  5057     06A2  3000               	movlw	0
  5058     06A3  00F3               	movwf	___awmod@divisor+1
  5059     06A4  0864               	movf	set_time@sec,w
  5060     06A5  00AB               	movwf	??_set_time
  5061     06A6  01AC               	clrf	??_set_time+1
  5062     06A7  082B               	movf	??_set_time,w
  5063     06A8  00F4               	movwf	___awmod@dividend
  5064     06A9  082C               	movf	??_set_time+1,w
  5065     06AA  00F5               	movwf	___awmod@dividend+1
  5066     06AB  160A  118A  26F8  120A  118A  	fcall	___awmod
  5067     06B0  0872               	movf	?___awmod,w
  5068     06B1  3E30               	addlw	48
  5069     06B2  160A  118A  22C1  120A  118A  	fcall	_clcd_putch
  5070     06B7                     l4556:
  5071                           
  5072                           ;car_black_box_def.c: 548:         if(--delay == 0)
  5073     06B7  3001               	movlw	1
  5074     06B8  1283               	bcf	3,5	;RP0=0, select bank0
  5075     06B9  1303               	bcf	3,6	;RP1=0, select bank0
  5076     06BA  02DD               	subwf	set_time@delay,f
  5077     06BB  3000               	movlw	0
  5078     06BC  1C03               	skipc
  5079     06BD  03DE               	decf	set_time@delay+1,f
  5080     06BE  02DE               	subwf	set_time@delay+1,f
  5081     06BF  085D               	movf	set_time@delay,w
  5082     06C0  045E               	iorwf	set_time@delay+1,w
  5083     06C1  1D03               	btfss	3,2
  5084     06C2  2EC4               	goto	u4891
  5085     06C3  2EC5               	goto	u4890
  5086     06C4                     u4891:
  5087     06C4  2F0F               	goto	l4570
  5088     06C5                     u4890:
  5089     06C5                     l4558:
  5090                           
  5091                           ;car_black_box_def.c: 549:         {;car_black_box_def.c: 550:             delay = 5;
  5092     06C5  3005               	movlw	5
  5093     06C6  00DD               	movwf	set_time@delay
  5094     06C7  3000               	movlw	0
  5095     06C8  00DE               	movwf	set_time@delay+1
  5096     06C9                     l4560:
  5097                           
  5098                           ;car_black_box_def.c: 551:             if(blink_flag == 0)
  5099     06C9  0862               	movf	set_time@blink_flag,w
  5100     06CA  1D03               	btfss	3,2
  5101     06CB  2ECD               	goto	u4901
  5102     06CC  2ECE               	goto	u4900
  5103     06CD                     u4901:
  5104     06CD  2F03               	goto	l4566
  5105     06CE                     u4900:
  5106     06CE                     l4562:
  5107                           
  5108                           ;car_black_box_def.c: 552:             {;car_black_box_def.c: 553:                 clcd_
      +                          putch((min / 10) + '0', (0xC0 + 7));
  5109     06CE  30C7               	movlw	199
  5110     06CF  00A0               	movwf	clcd_putch@addr
  5111     06D0  300A               	movlw	10
  5112     06D1  00F2               	movwf	___awdiv@divisor
  5113     06D2  3000               	movlw	0
  5114     06D3  00F3               	movwf	___awdiv@divisor+1
  5115     06D4  0865               	movf	set_time@min,w
  5116     06D5  00AB               	movwf	??_set_time
  5117     06D6  01AC               	clrf	??_set_time+1
  5118     06D7  082B               	movf	??_set_time,w
  5119     06D8  00F4               	movwf	___awdiv@dividend
  5120     06D9  082C               	movf	??_set_time+1,w
  5121     06DA  00F5               	movwf	___awdiv@dividend+1
  5122     06DB  120A  158A  20F8  120A  118A  	fcall	___awdiv
  5123     06E0  0872               	movf	?___awdiv,w
  5124     06E1  3E30               	addlw	48
  5125     06E2  160A  118A  22C1  120A  118A  	fcall	_clcd_putch
  5126                           
  5127                           ;car_black_box_def.c: 554:                 clcd_putch((min % 10) + '0', (0xC0 + 8));
  5128     06E7  30C8               	movlw	200
  5129     06E8  1283               	bcf	3,5	;RP0=0, select bank0
  5130     06E9  1303               	bcf	3,6	;RP1=0, select bank0
  5131     06EA  00A0               	movwf	clcd_putch@addr
  5132     06EB  300A               	movlw	10
  5133     06EC  00F2               	movwf	___awmod@divisor
  5134     06ED  3000               	movlw	0
  5135     06EE  00F3               	movwf	___awmod@divisor+1
  5136     06EF  0865               	movf	set_time@min,w
  5137     06F0  00AB               	movwf	??_set_time
  5138     06F1  01AC               	clrf	??_set_time+1
  5139     06F2  082B               	movf	??_set_time,w
  5140     06F3  00F4               	movwf	___awmod@dividend
  5141     06F4  082C               	movf	??_set_time+1,w
  5142     06F5  00F5               	movwf	___awmod@dividend+1
  5143     06F6  160A  118A  26F8  120A  118A  	fcall	___awmod
  5144     06FB  0872               	movf	?___awmod,w
  5145     06FC  3E30               	addlw	48
  5146     06FD  160A  118A  22C1  120A  118A  	fcall	_clcd_putch
  5147     0702  2E20               	goto	l4546
  5148     0703                     l4566:
  5149                           
  5150                           ;car_black_box_def.c: 558:             {;car_black_box_def.c: 559:                 clcd_
      +                          print("  ", (0xC0 + 7));
  5151     0703  3072               	movlw	low (STR_35| (0+32768))
  5152     0704  00F6               	movwf	clcd_print@str
  5153     0705  3091               	movlw	high (STR_35| (0+32768))
  5154     0706  00F7               	movwf	clcd_print@str+1
  5155     0707  30C7               	movlw	199
  5156     0708  00F8               	movwf	clcd_print@addr
  5157     0709  160A  118A  2494  120A  118A  	fcall	_clcd_print
  5158     070E  2E30               	goto	l4550
  5159     070F                     l4570:
  5160                           
  5161                           ;car_black_box_def.c: 565:     if(field == 2)
  5162     070F  3002               	movlw	2
  5163     0710  0663               	xorwf	set_time@field,w
  5164     0711  1D03               	btfss	3,2
  5165     0712  2F14               	goto	u4911
  5166     0713  2F15               	goto	u4910
  5167     0714                     u4911:
  5168     0714  2FF1               	goto	l4588
  5169     0715                     u4910:
  5170     0715                     l4572:
  5171                           
  5172                           ;car_black_box_def.c: 566:     {;car_black_box_def.c: 567:         clcd_putch(':', (0xC0
      +                           + 6));
  5173     0715  30C6               	movlw	198
  5174     0716  00A0               	movwf	clcd_putch@addr
  5175     0717  303A               	movlw	58
  5176     0718  160A  118A  22C1  120A  118A  	fcall	_clcd_putch
  5177                           
  5178                           ;car_black_box_def.c: 568:         clcd_putch((min / 10) + '0', (0xC0 + 7));
  5179     071D  30C7               	movlw	199
  5180     071E  1283               	bcf	3,5	;RP0=0, select bank0
  5181     071F  1303               	bcf	3,6	;RP1=0, select bank0
  5182     0720  00A0               	movwf	clcd_putch@addr
  5183     0721  300A               	movlw	10
  5184     0722  00F2               	movwf	___awdiv@divisor
  5185     0723  3000               	movlw	0
  5186     0724  00F3               	movwf	___awdiv@divisor+1
  5187     0725  0865               	movf	set_time@min,w
  5188     0726  00AB               	movwf	??_set_time
  5189     0727  01AC               	clrf	??_set_time+1
  5190     0728  082B               	movf	??_set_time,w
  5191     0729  00F4               	movwf	___awdiv@dividend
  5192     072A  082C               	movf	??_set_time+1,w
  5193     072B  00F5               	movwf	___awdiv@dividend+1
  5194     072C  120A  158A  20F8  120A  118A  	fcall	___awdiv
  5195     0731  0872               	movf	?___awdiv,w
  5196     0732  3E30               	addlw	48
  5197     0733  160A  118A  22C1  120A  118A  	fcall	_clcd_putch
  5198                           
  5199                           ;car_black_box_def.c: 569:         clcd_putch((min % 10) + '0', (0xC0 + 8));
  5200     0738  30C8               	movlw	200
  5201     0739  1283               	bcf	3,5	;RP0=0, select bank0
  5202     073A  1303               	bcf	3,6	;RP1=0, select bank0
  5203     073B  00A0               	movwf	clcd_putch@addr
  5204     073C  300A               	movlw	10
  5205     073D  00F2               	movwf	___awmod@divisor
  5206     073E  3000               	movlw	0
  5207     073F  00F3               	movwf	___awmod@divisor+1
  5208     0740  0865               	movf	set_time@min,w
  5209     0741  00AB               	movwf	??_set_time
  5210     0742  01AC               	clrf	??_set_time+1
  5211     0743  082B               	movf	??_set_time,w
  5212     0744  00F4               	movwf	___awmod@dividend
  5213     0745  082C               	movf	??_set_time+1,w
  5214     0746  00F5               	movwf	___awmod@dividend+1
  5215     0747  160A  118A  26F8  120A  118A  	fcall	___awmod
  5216     074C  0872               	movf	?___awmod,w
  5217     074D  3E30               	addlw	48
  5218     074E  160A  118A  22C1  120A  118A  	fcall	_clcd_putch
  5219                           
  5220                           ;car_black_box_def.c: 570:         clcd_putch(':', (0xC0 + 9));
  5221     0753  30C9               	movlw	201
  5222     0754  1283               	bcf	3,5	;RP0=0, select bank0
  5223     0755  1303               	bcf	3,6	;RP1=0, select bank0
  5224     0756  00A0               	movwf	clcd_putch@addr
  5225     0757  303A               	movlw	58
  5226     0758  160A  118A  22C1  120A  118A  	fcall	_clcd_putch
  5227                           
  5228                           ;car_black_box_def.c: 571:         clcd_putch((sec / 10) + '0', (0xC0 + 10));
  5229     075D  30CA               	movlw	202
  5230     075E  1283               	bcf	3,5	;RP0=0, select bank0
  5231     075F  1303               	bcf	3,6	;RP1=0, select bank0
  5232     0760  00A0               	movwf	clcd_putch@addr
  5233     0761  300A               	movlw	10
  5234     0762  00F2               	movwf	___awdiv@divisor
  5235     0763  3000               	movlw	0
  5236     0764  00F3               	movwf	___awdiv@divisor+1
  5237     0765  0864               	movf	set_time@sec,w
  5238     0766  00AB               	movwf	??_set_time
  5239     0767  01AC               	clrf	??_set_time+1
  5240     0768  082B               	movf	??_set_time,w
  5241     0769  00F4               	movwf	___awdiv@dividend
  5242     076A  082C               	movf	??_set_time+1,w
  5243     076B  00F5               	movwf	___awdiv@dividend+1
  5244     076C  120A  158A  20F8  120A  118A  	fcall	___awdiv
  5245     0771  0872               	movf	?___awdiv,w
  5246     0772  3E30               	addlw	48
  5247     0773  160A  118A  22C1  120A  118A  	fcall	_clcd_putch
  5248                           
  5249                           ;car_black_box_def.c: 572:         clcd_putch((sec % 10) + '0', (0xC0 + 11));
  5250     0778  30CB               	movlw	203
  5251     0779  1283               	bcf	3,5	;RP0=0, select bank0
  5252     077A  1303               	bcf	3,6	;RP1=0, select bank0
  5253     077B  00A0               	movwf	clcd_putch@addr
  5254     077C  300A               	movlw	10
  5255     077D  00F2               	movwf	___awmod@divisor
  5256     077E  3000               	movlw	0
  5257     077F  00F3               	movwf	___awmod@divisor+1
  5258     0780  0864               	movf	set_time@sec,w
  5259     0781  00AB               	movwf	??_set_time
  5260     0782  01AC               	clrf	??_set_time+1
  5261     0783  082B               	movf	??_set_time,w
  5262     0784  00F4               	movwf	___awmod@dividend
  5263     0785  082C               	movf	??_set_time+1,w
  5264     0786  00F5               	movwf	___awmod@dividend+1
  5265     0787  160A  118A  26F8  120A  118A  	fcall	___awmod
  5266     078C  0872               	movf	?___awmod,w
  5267     078D  3E30               	addlw	48
  5268     078E  160A  118A  22C1  120A  118A  	fcall	_clcd_putch
  5269     0793                     l4574:
  5270                           
  5271                           ;car_black_box_def.c: 574:         if(--delay == 0)
  5272     0793  3001               	movlw	1
  5273     0794  1283               	bcf	3,5	;RP0=0, select bank0
  5274     0795  1303               	bcf	3,6	;RP1=0, select bank0
  5275     0796  02DD               	subwf	set_time@delay,f
  5276     0797  3000               	movlw	0
  5277     0798  1C03               	skipc
  5278     0799  03DE               	decf	set_time@delay+1,f
  5279     079A  02DE               	subwf	set_time@delay+1,f
  5280     079B  085D               	movf	set_time@delay,w
  5281     079C  045E               	iorwf	set_time@delay+1,w
  5282     079D  1D03               	btfss	3,2
  5283     079E  2FA0               	goto	u4921
  5284     079F  2FA1               	goto	u4920
  5285     07A0                     u4921:
  5286     07A0  2FF1               	goto	l4588
  5287     07A1                     u4920:
  5288     07A1                     l4576:
  5289                           
  5290                           ;car_black_box_def.c: 575:         {;car_black_box_def.c: 576:             delay = 5;
  5291     07A1  3005               	movlw	5
  5292     07A2  00DD               	movwf	set_time@delay
  5293     07A3  3000               	movlw	0
  5294     07A4  00DE               	movwf	set_time@delay+1
  5295     07A5                     l4578:
  5296                           
  5297                           ;car_black_box_def.c: 577:             if(blink_flag == 0)
  5298     07A5  0862               	movf	set_time@blink_flag,w
  5299     07A6  1D03               	btfss	3,2
  5300     07A7  2FA9               	goto	u4931
  5301     07A8  2FAA               	goto	u4930
  5302     07A9                     u4931:
  5303     07A9  2FE3               	goto	l4584
  5304     07AA                     u4930:
  5305     07AA                     l4580:
  5306                           
  5307                           ;car_black_box_def.c: 578:             {;car_black_box_def.c: 579:                 clcd_
      +                          putch((hr / 10) + '0', (0xC0 + 4));
  5308     07AA  30C4               	movlw	196
  5309     07AB  00A0               	movwf	clcd_putch@addr
  5310     07AC  300A               	movlw	10
  5311     07AD  00F2               	movwf	___awdiv@divisor
  5312     07AE  3000               	movlw	0
  5313     07AF  00F3               	movwf	___awdiv@divisor+1
  5314     07B0  0866               	movf	set_time@hr,w
  5315     07B1  00AB               	movwf	??_set_time
  5316     07B2  01AC               	clrf	??_set_time+1
  5317     07B3  082B               	movf	??_set_time,w
  5318     07B4  00F4               	movwf	___awdiv@dividend
  5319     07B5  082C               	movf	??_set_time+1,w
  5320     07B6  00F5               	movwf	___awdiv@dividend+1
  5321     07B7  120A  158A  20F8  120A  118A  	fcall	___awdiv
  5322     07BC  0872               	movf	?___awdiv,w
  5323     07BD  3E30               	addlw	48
  5324     07BE  160A  118A  22C1  120A  118A  	fcall	_clcd_putch
  5325                           
  5326                           ;car_black_box_def.c: 580:                 clcd_putch((hr % 10) + '0', (0xC0 + 5));
  5327     07C3  30C5               	movlw	197
  5328     07C4  1283               	bcf	3,5	;RP0=0, select bank0
  5329     07C5  1303               	bcf	3,6	;RP1=0, select bank0
  5330     07C6  00A0               	movwf	clcd_putch@addr
  5331     07C7  300A               	movlw	10
  5332     07C8  00F2               	movwf	___awmod@divisor
  5333     07C9  3000               	movlw	0
  5334     07CA  00F3               	movwf	___awmod@divisor+1
  5335     07CB  0866               	movf	set_time@hr,w
  5336     07CC  00AB               	movwf	??_set_time
  5337     07CD  01AC               	clrf	??_set_time+1
  5338     07CE  082B               	movf	??_set_time,w
  5339     07CF  00F4               	movwf	___awmod@dividend
  5340     07D0  082C               	movf	??_set_time+1,w
  5341     07D1  00F5               	movwf	___awmod@dividend+1
  5342     07D2  160A  118A  26F8  120A  118A  	fcall	___awmod
  5343     07D7  0872               	movf	?___awmod,w
  5344     07D8  3E30               	addlw	48
  5345     07D9  160A  118A  22C1  120A  118A  	fcall	_clcd_putch
  5346     07DE                     l4582:
  5347                           
  5348                           ;car_black_box_def.c: 581:                 blink_flag = 1;
  5349     07DE  3001               	movlw	1
  5350     07DF  1283               	bcf	3,5	;RP0=0, select bank0
  5351     07E0  1303               	bcf	3,6	;RP1=0, select bank0
  5352     07E1  00E2               	movwf	set_time@blink_flag
  5353                           
  5354                           ;car_black_box_def.c: 582:             }
  5355     07E2  2FF1               	goto	l4588
  5356     07E3                     l4584:
  5357                           
  5358                           ;car_black_box_def.c: 584:             {;car_black_box_def.c: 585:                 clcd_
      +                          print("  ", (0xC0 + 4));
  5359     07E3  3072               	movlw	low (STR_35| (0+32768))
  5360     07E4  00F6               	movwf	clcd_print@str
  5361     07E5  3091               	movlw	high (STR_35| (0+32768))
  5362     07E6  00F7               	movwf	clcd_print@str+1
  5363     07E7  30C4               	movlw	196
  5364     07E8  00F8               	movwf	clcd_print@addr
  5365     07E9  160A  118A  2494  120A  118A  	fcall	_clcd_print
  5366     07EE                     l4586:
  5367                           
  5368                           ;car_black_box_def.c: 586:                 blink_flag = 0;
  5369     07EE  1283               	bcf	3,5	;RP0=0, select bank0
  5370     07EF  1303               	bcf	3,6	;RP1=0, select bank0
  5371     07F0  01E2               	clrf	set_time@blink_flag
  5372     07F1                     l4588:
  5373                           
  5374                           ;car_black_box_def.c: 590:     return 0;
  5375     07F1  3000               	movlw	0
  5376     07F2                     l492:
  5377     07F2  0008               	return
  5378     07F3                     __end_of_set_time:
  5379                           
  5380                           	psect	text5
  5381     0C83                     __ptext5:	
  5382 ;; *************** function _save_time *****************
  5383 ;; Defined at:
  5384 ;;		line 423 in file "car_black_box_def.c"
  5385 ;; Parameters:    Size  Location     Type
  5386 ;;  hr              1    wreg     unsigned char 
  5387 ;;  min             1    0[BANK0 ] unsigned char 
  5388 ;;  sec             1    1[BANK0 ] unsigned char 
  5389 ;; Auto vars:     Size  Location     Type
  5390 ;;  hr              1    9[BANK0 ] unsigned char 
  5391 ;; Return value:  Size  Location     Type
  5392 ;;                  1    wreg      void 
  5393 ;; Registers used:
  5394 ;;		wreg, status,2, status,0, pclath, cstack
  5395 ;; Tracked objects:
  5396 ;;		On entry : 0/0
  5397 ;;		On exit  : 0/0
  5398 ;;		Unchanged: 0/0
  5399 ;; Data sizes:     COMMON   BANK0   BANK1   BANK3   BANK2
  5400 ;;      Params:         0       2       0       0       0
  5401 ;;      Locals:         0       1       0       0       0
  5402 ;;      Temps:          0       7       0       0       0
  5403 ;;      Totals:         0      10       0       0       0
  5404 ;;Total ram usage:       10 bytes
  5405 ;; Hardware stack levels used: 1
  5406 ;; Hardware stack levels required when called: 2
  5407 ;; This function calls:
  5408 ;;		___awdiv
  5409 ;;		___awmod
  5410 ;;		_write_ds1307
  5411 ;; This function is called by:
  5412 ;;		_set_time
  5413 ;; This function uses a non-reentrant model
  5414 ;;
  5415                           
  5416     0C83                     _save_time:	
  5417                           ;psect for function _save_time
  5418                           
  5419                           
  5420                           ;incstack = 0
  5421                           ; Regs used in _save_time: [wreg+status,2+status,0+pclath+cstack]
  5422                           ;save_time@hr stored from wreg
  5423     0C83  1283               	bcf	3,5	;RP0=0, select bank0
  5424     0C84  1303               	bcf	3,6	;RP1=0, select bank0
  5425     0C85  00A9               	movwf	save_time@hr
  5426     0C86                     l4160:
  5427                           
  5428                           ;car_black_box_def.c: 423: static void save_time(unsigned char hr, unsigned char min, un
      +                          signed char sec);car_black_box_def.c: 424: {;car_black_box_def.c: 425:     hr = (unsigne
      +                          d char)(((hr / 10) << 4) | (hr % 10));
  5429     0C86  300A               	movlw	10
  5430     0C87  00F2               	movwf	___awmod@divisor
  5431     0C88  3000               	movlw	0
  5432     0C89  00F3               	movwf	___awmod@divisor+1
  5433     0C8A  0829               	movf	save_time@hr,w
  5434     0C8B  00A2               	movwf	??_save_time
  5435     0C8C  01A3               	clrf	??_save_time+1
  5436     0C8D  0822               	movf	??_save_time,w
  5437     0C8E  00F4               	movwf	___awmod@dividend
  5438     0C8F  0823               	movf	??_save_time+1,w
  5439     0C90  00F5               	movwf	___awmod@dividend+1
  5440     0C91  160A  118A  26F8  120A  158A  	fcall	___awmod
  5441     0C96  0872               	movf	?___awmod,w
  5442     0C97  1283               	bcf	3,5	;RP0=0, select bank0
  5443     0C98  1303               	bcf	3,6	;RP1=0, select bank0
  5444     0C99  00A4               	movwf	??_save_time+2
  5445     0C9A  0873               	movf	?___awmod+1,w
  5446     0C9B  00A5               	movwf	??_save_time+3
  5447     0C9C  300A               	movlw	10
  5448     0C9D  00F2               	movwf	___awdiv@divisor
  5449     0C9E  3000               	movlw	0
  5450     0C9F  00F3               	movwf	___awdiv@divisor+1
  5451     0CA0  0829               	movf	save_time@hr,w
  5452     0CA1  00A6               	movwf	??_save_time+4
  5453     0CA2  01A7               	clrf	??_save_time+5
  5454     0CA3  0826               	movf	??_save_time+4,w
  5455     0CA4  00F4               	movwf	___awdiv@dividend
  5456     0CA5  0827               	movf	??_save_time+5,w
  5457     0CA6  00F5               	movwf	___awdiv@dividend+1
  5458     0CA7  120A  158A  20F8  120A  158A  	fcall	___awdiv
  5459     0CAC  0872               	movf	?___awdiv,w
  5460     0CAD  1283               	bcf	3,5	;RP0=0, select bank0
  5461     0CAE  1303               	bcf	3,6	;RP1=0, select bank0
  5462     0CAF  00A8               	movwf	??_save_time+6
  5463     0CB0  3003               	movlw	3
  5464     0CB1                     u4295:
  5465     0CB1  1003               	clrc
  5466     0CB2  0DA8               	rlf	??_save_time+6,f
  5467     0CB3  3EFF               	addlw	-1
  5468     0CB4  1D03               	skipz
  5469     0CB5  2CB1               	goto	u4295
  5470     0CB6  1003               	clrc
  5471     0CB7  0D28               	rlf	??_save_time+6,w
  5472     0CB8  0424               	iorwf	??_save_time+2,w
  5473     0CB9  00A9               	movwf	save_time@hr
  5474                           
  5475                           ;car_black_box_def.c: 426:     min = (unsigned char)(((min / 10) << 4) | (min % 10));
  5476     0CBA  300A               	movlw	10
  5477     0CBB  00F2               	movwf	___awmod@divisor
  5478     0CBC  3000               	movlw	0
  5479     0CBD  00F3               	movwf	___awmod@divisor+1
  5480     0CBE  0820               	movf	save_time@min,w
  5481     0CBF  00A2               	movwf	??_save_time
  5482     0CC0  01A3               	clrf	??_save_time+1
  5483     0CC1  0822               	movf	??_save_time,w
  5484     0CC2  00F4               	movwf	___awmod@dividend
  5485     0CC3  0823               	movf	??_save_time+1,w
  5486     0CC4  00F5               	movwf	___awmod@dividend+1
  5487     0CC5  160A  118A  26F8  120A  158A  	fcall	___awmod
  5488     0CCA  0872               	movf	?___awmod,w
  5489     0CCB  1283               	bcf	3,5	;RP0=0, select bank0
  5490     0CCC  1303               	bcf	3,6	;RP1=0, select bank0
  5491     0CCD  00A4               	movwf	??_save_time+2
  5492     0CCE  0873               	movf	?___awmod+1,w
  5493     0CCF  00A5               	movwf	??_save_time+3
  5494     0CD0  300A               	movlw	10
  5495     0CD1  00F2               	movwf	___awdiv@divisor
  5496     0CD2  3000               	movlw	0
  5497     0CD3  00F3               	movwf	___awdiv@divisor+1
  5498     0CD4  0820               	movf	save_time@min,w
  5499     0CD5  00A6               	movwf	??_save_time+4
  5500     0CD6  01A7               	clrf	??_save_time+5
  5501     0CD7  0826               	movf	??_save_time+4,w
  5502     0CD8  00F4               	movwf	___awdiv@dividend
  5503     0CD9  0827               	movf	??_save_time+5,w
  5504     0CDA  00F5               	movwf	___awdiv@dividend+1
  5505     0CDB  120A  158A  20F8  120A  158A  	fcall	___awdiv
  5506     0CE0  0872               	movf	?___awdiv,w
  5507     0CE1  1283               	bcf	3,5	;RP0=0, select bank0
  5508     0CE2  1303               	bcf	3,6	;RP1=0, select bank0
  5509     0CE3  00A8               	movwf	??_save_time+6
  5510     0CE4  3003               	movlw	3
  5511     0CE5                     u4305:
  5512     0CE5  1003               	clrc
  5513     0CE6  0DA8               	rlf	??_save_time+6,f
  5514     0CE7  3EFF               	addlw	-1
  5515     0CE8  1D03               	skipz
  5516     0CE9  2CE5               	goto	u4305
  5517     0CEA  1003               	clrc
  5518     0CEB  0D28               	rlf	??_save_time+6,w
  5519     0CEC  0424               	iorwf	??_save_time+2,w
  5520     0CED  00A0               	movwf	save_time@min
  5521                           
  5522                           ;car_black_box_def.c: 427:     sec = (unsigned char)(((sec / 10) << 4) | (sec % 10));
  5523     0CEE  300A               	movlw	10
  5524     0CEF  00F2               	movwf	___awmod@divisor
  5525     0CF0  3000               	movlw	0
  5526     0CF1  00F3               	movwf	___awmod@divisor+1
  5527     0CF2  0821               	movf	save_time@sec,w
  5528     0CF3  00A2               	movwf	??_save_time
  5529     0CF4  01A3               	clrf	??_save_time+1
  5530     0CF5  0822               	movf	??_save_time,w
  5531     0CF6  00F4               	movwf	___awmod@dividend
  5532     0CF7  0823               	movf	??_save_time+1,w
  5533     0CF8  00F5               	movwf	___awmod@dividend+1
  5534     0CF9  160A  118A  26F8  120A  158A  	fcall	___awmod
  5535     0CFE  0872               	movf	?___awmod,w
  5536     0CFF  1283               	bcf	3,5	;RP0=0, select bank0
  5537     0D00  1303               	bcf	3,6	;RP1=0, select bank0
  5538     0D01  00A4               	movwf	??_save_time+2
  5539     0D02  0873               	movf	?___awmod+1,w
  5540     0D03  00A5               	movwf	??_save_time+3
  5541     0D04  300A               	movlw	10
  5542     0D05  00F2               	movwf	___awdiv@divisor
  5543     0D06  3000               	movlw	0
  5544     0D07  00F3               	movwf	___awdiv@divisor+1
  5545     0D08  0821               	movf	save_time@sec,w
  5546     0D09  00A6               	movwf	??_save_time+4
  5547     0D0A  01A7               	clrf	??_save_time+5
  5548     0D0B  0826               	movf	??_save_time+4,w
  5549     0D0C  00F4               	movwf	___awdiv@dividend
  5550     0D0D  0827               	movf	??_save_time+5,w
  5551     0D0E  00F5               	movwf	___awdiv@dividend+1
  5552     0D0F  120A  158A  20F8  120A  158A  	fcall	___awdiv
  5553     0D14  0872               	movf	?___awdiv,w
  5554     0D15  1283               	bcf	3,5	;RP0=0, select bank0
  5555     0D16  1303               	bcf	3,6	;RP1=0, select bank0
  5556     0D17  00A8               	movwf	??_save_time+6
  5557     0D18  3003               	movlw	3
  5558     0D19                     u4315:
  5559     0D19  1003               	clrc
  5560     0D1A  0DA8               	rlf	??_save_time+6,f
  5561     0D1B  3EFF               	addlw	-1
  5562     0D1C  1D03               	skipz
  5563     0D1D  2D19               	goto	u4315
  5564     0D1E  1003               	clrc
  5565     0D1F  0D28               	rlf	??_save_time+6,w
  5566     0D20  0424               	iorwf	??_save_time+2,w
  5567     0D21  00A1               	movwf	save_time@sec
  5568                           
  5569                           ;car_black_box_def.c: 429:     write_ds1307(0x02, hr);
  5570     0D22  0829               	movf	save_time@hr,w
  5571     0D23  00F3               	movwf	write_ds1307@data
  5572     0D24  3002               	movlw	2
  5573     0D25  160A  118A  22EF  120A  158A  	fcall	_write_ds1307
  5574                           
  5575                           ;car_black_box_def.c: 430:     write_ds1307(0x01, min);
  5576     0D2A  1283               	bcf	3,5	;RP0=0, select bank0
  5577     0D2B  1303               	bcf	3,6	;RP1=0, select bank0
  5578     0D2C  0820               	movf	save_time@min,w
  5579     0D2D  00F3               	movwf	write_ds1307@data
  5580     0D2E  3001               	movlw	1
  5581     0D2F  160A  118A  22EF  120A  158A  	fcall	_write_ds1307
  5582                           
  5583                           ;car_black_box_def.c: 431:     write_ds1307(0x00, sec);
  5584     0D34  1283               	bcf	3,5	;RP0=0, select bank0
  5585     0D35  1303               	bcf	3,6	;RP1=0, select bank0
  5586     0D36  0821               	movf	save_time@sec,w
  5587     0D37  00F3               	movwf	write_ds1307@data
  5588     0D38  3000               	movlw	0
  5589     0D39  160A  118A  22EF  120A  158A  	fcall	_write_ds1307
  5590     0D3E                     l461:
  5591     0D3E  0008               	return
  5592     0D3F                     __end_of_save_time:
  5593                           
  5594                           	psect	text6
  5595     13BB                     __ptext6:	
  5596 ;; *************** function _read_digital_keypad *****************
  5597 ;; Defined at:
  5598 ;;		line 10 in file "digital_keypad.c"
  5599 ;; Parameters:    Size  Location     Type
  5600 ;;  mode            1    wreg     unsigned char 
  5601 ;; Auto vars:     Size  Location     Type
  5602 ;;  mode            1    3[COMMON] unsigned char 
  5603 ;; Return value:  Size  Location     Type
  5604 ;;                  1    wreg      unsigned char 
  5605 ;; Registers used:
  5606 ;;		wreg, status,2, status,0
  5607 ;; Tracked objects:
  5608 ;;		On entry : 0/0
  5609 ;;		On exit  : 0/0
  5610 ;;		Unchanged: 0/0
  5611 ;; Data sizes:     COMMON   BANK0   BANK1   BANK3   BANK2
  5612 ;;      Params:         0       0       0       0       0
  5613 ;;      Locals:         1       0       0       0       0
  5614 ;;      Temps:          1       0       0       0       0
  5615 ;;      Totals:         2       0       0       0       0
  5616 ;;Total ram usage:        2 bytes
  5617 ;; Hardware stack levels used: 1
  5618 ;; Hardware stack levels required when called: 1
  5619 ;; This function calls:
  5620 ;;		Nothing
  5621 ;; This function is called by:
  5622 ;;		_main
  5623 ;; This function uses a non-reentrant model
  5624 ;;
  5625                           
  5626     13BB                     _read_digital_keypad:	
  5627                           ;psect for function _read_digital_keypad
  5628                           
  5629                           
  5630                           ;incstack = 0
  5631                           ; Regs used in _read_digital_keypad: [wreg+status,2+status,0]
  5632                           ;read_digital_keypad@mode stored from wreg
  5633     13BB  00F3               	movwf	read_digital_keypad@mode
  5634     13BC                     l2962:
  5635                           
  5636                           ;digital_keypad.c: 10: unsigned char read_digital_keypad(unsigned char mode);digital_key
      +                          pad.c: 11: {;digital_keypad.c: 12:     static unsigned char once = 1;;digital_keypad.c: 
      +                          14:     if (mode == 0)
  5637     13BC  0873               	movf	read_digital_keypad@mode,w
  5638     13BD  1D03               	btfss	3,2
  5639     13BE  2BC0               	goto	u2601
  5640     13BF  2BC1               	goto	u2600
  5641     13C0                     u2601:
  5642     13C0  2BC6               	goto	l2970
  5643     13C1                     u2600:
  5644     13C1                     l2964:
  5645                           
  5646                           ;digital_keypad.c: 15:     {;digital_keypad.c: 16:         return PORTB & 0x3F;
  5647     13C1  1283               	bcf	3,5	;RP0=0, select bank0
  5648     13C2  1303               	bcf	3,6	;RP1=0, select bank0
  5649     13C3  0806               	movf	6,w	;volatile
  5650     13C4  393F               	andlw	63
  5651     13C5  2BE4               	goto	l208
  5652     13C6                     l2970:
  5653                           
  5654                           ;digital_keypad.c: 19:     {;digital_keypad.c: 20:         if (((PORTB & 0x3F) != 0x3F) 
      +                          && once)
  5655     13C6  303F               	movlw	63
  5656     13C7  1283               	bcf	3,5	;RP0=0, select bank0
  5657     13C8  1303               	bcf	3,6	;RP1=0, select bank0
  5658     13C9  0506               	andwf	6,w	;volatile
  5659     13CA  00F2               	movwf	??_read_digital_keypad
  5660     13CB  303F               	movlw	63
  5661     13CC  0672               	xorwf	??_read_digital_keypad,w
  5662     13CD  1903               	btfsc	3,2
  5663     13CE  2BD0               	goto	u2611
  5664     13CF  2BD1               	goto	u2610
  5665     13D0                     u2611:
  5666     13D0  2BD8               	goto	l2982
  5667     13D1                     u2610:
  5668     13D1                     l2972:
  5669     13D1  087B               	movf	read_digital_keypad@once,w
  5670     13D2  1903               	btfsc	3,2
  5671     13D3  2BD5               	goto	u2621
  5672     13D4  2BD6               	goto	u2620
  5673     13D5                     u2621:
  5674     13D5  2BD8               	goto	l2982
  5675     13D6                     u2620:
  5676     13D6                     l2974:
  5677                           
  5678                           ;digital_keypad.c: 21:         {;digital_keypad.c: 22:             once = 0;
  5679     13D6  01FB               	clrf	read_digital_keypad@once
  5680     13D7  2BC1               	goto	l2964
  5681     13D8                     l2982:
  5682     13D8  303F               	movlw	63
  5683     13D9  0506               	andwf	6,w	;volatile
  5684     13DA  00F2               	movwf	??_read_digital_keypad
  5685     13DB  303F               	movlw	63
  5686     13DC  0672               	xorwf	??_read_digital_keypad,w
  5687     13DD  1D03               	btfss	3,2
  5688     13DE  2BE0               	goto	u2631
  5689     13DF  2BE1               	goto	u2630
  5690     13E0                     u2631:
  5691     13E0  2BE3               	goto	l2986
  5692     13E1                     u2630:
  5693     13E1                     l2984:
  5694                           
  5695                           ;digital_keypad.c: 27:         {;digital_keypad.c: 28:             once = 1;
  5696     13E1  3001               	movlw	1
  5697     13E2  00FB               	movwf	read_digital_keypad@once
  5698     13E3                     l2986:
  5699                           
  5700                           ;digital_keypad.c: 32:     return 0x3F;
  5701     13E3  303F               	movlw	63
  5702     13E4                     l208:
  5703     13E4  0008               	return
  5704     13E5                     __end_of_read_digital_keypad:
  5705                           
  5706                           	psect	text7
  5707     1289                     __ptext7:	
  5708 ;; *************** function _read_adc *****************
  5709 ;; Defined at:
  5710 ;;		line 12 in file "adc.c"
  5711 ;; Parameters:    Size  Location     Type
  5712 ;;		None
  5713 ;; Auto vars:     Size  Location     Type
  5714 ;;  adc_reg_val     2    4[COMMON] unsigned short 
  5715 ;; Return value:  Size  Location     Type
  5716 ;;                  2    2[COMMON] unsigned short 
  5717 ;; Registers used:
  5718 ;;		wreg
  5719 ;; Tracked objects:
  5720 ;;		On entry : 0/0
  5721 ;;		On exit  : 0/0
  5722 ;;		Unchanged: 0/0
  5723 ;; Data sizes:     COMMON   BANK0   BANK1   BANK3   BANK2
  5724 ;;      Params:         2       0       0       0       0
  5725 ;;      Locals:         2       0       0       0       0
  5726 ;;      Temps:          0       0       0       0       0
  5727 ;;      Totals:         4       0       0       0       0
  5728 ;;Total ram usage:        4 bytes
  5729 ;; Hardware stack levels used: 1
  5730 ;; Hardware stack levels required when called: 1
  5731 ;; This function calls:
  5732 ;;		Nothing
  5733 ;; This function is called by:
  5734 ;;		_main
  5735 ;; This function uses a non-reentrant model
  5736 ;;
  5737                           
  5738     1289                     _read_adc:	
  5739                           ;psect for function _read_adc
  5740                           
  5741     1289                     l2956:	
  5742                           ;incstack = 0
  5743                           ; Regs used in _read_adc: [wreg]
  5744                           
  5745                           
  5746                           ;adc.c: 14:     unsigned short adc_reg_val;;adc.c: 17:     GO = 1;
  5747     1289  1283               	bcf	3,5	;RP0=0, select bank0
  5748     128A  1303               	bcf	3,6	;RP1=0, select bank0
  5749     128B  151F               	bsf	31,2	;volatile
  5750     128C                     l305:	
  5751                           ;adc.c: 20:     while (nDONE);
  5752                           
  5753     128C  191F               	btfsc	31,2	;volatile
  5754     128D  2A8F               	goto	u2591
  5755     128E  2A90               	goto	u2590
  5756     128F                     u2591:
  5757     128F  2A8C               	goto	l305
  5758     1290                     u2590:
  5759     1290                     l2958:
  5760                           
  5761                           ;adc.c: 23:     adc_reg_val = (unsigned short)((ADRESH << 8) | ADRESL);
  5762     1290  081E               	movf	30,w	;volatile
  5763     1291  00F5               	movwf	read_adc@adc_reg_val+1
  5764     1292  1683               	bsf	3,5	;RP0=1, select bank1
  5765     1293  1303               	bcf	3,6	;RP1=0, select bank1
  5766     1294  081E               	movf	30,w	;volatile
  5767     1295  00F4               	movwf	read_adc@adc_reg_val
  5768                           
  5769                           ;adc.c: 25:     return adc_reg_val;
  5770     1296  0875               	movf	read_adc@adc_reg_val+1,w
  5771     1297  00F3               	movwf	?_read_adc+1
  5772     1298  0874               	movf	read_adc@adc_reg_val,w
  5773     1299  00F2               	movwf	?_read_adc
  5774     129A                     l308:
  5775     129A  0008               	return
  5776     129B                     __end_of_read_adc:
  5777                           
  5778                           	psect	text8
  5779     0BD4                     __ptext8:	
  5780 ;; *************** function _menu_screen *****************
  5781 ;; Defined at:
  5782 ;;		line 210 in file "car_black_box_def.c"
  5783 ;; Parameters:    Size  Location     Type
  5784 ;;  key             1    wreg     unsigned char 
  5785 ;;  reset_flag      1    2[BANK0 ] unsigned char 
  5786 ;; Auto vars:     Size  Location     Type
  5787 ;;  key             1    5[BANK0 ] unsigned char 
  5788 ;; Return value:  Size  Location     Type
  5789 ;;                  1    wreg      unsigned char 
  5790 ;; Registers used:
  5791 ;;		wreg, fsr0l, fsr0h, status,2, status,0, pclath, btemp1, cstack
  5792 ;; Tracked objects:
  5793 ;;		On entry : 0/0
  5794 ;;		On exit  : 0/0
  5795 ;;		Unchanged: 0/0
  5796 ;; Data sizes:     COMMON   BANK0   BANK1   BANK3   BANK2
  5797 ;;      Params:         0       1       0       0       0
  5798 ;;      Locals:         0       1       0       0       0
  5799 ;;      Temps:          0       2       0       0       0
  5800 ;;      Totals:         0       4       0       0       0
  5801 ;;Total ram usage:        4 bytes
  5802 ;; Hardware stack levels used: 1
  5803 ;; Hardware stack levels required when called: 2
  5804 ;; This function calls:
  5805 ;;		_clcd_print
  5806 ;;		_clcd_putch
  5807 ;;		_clear_screen
  5808 ;; This function is called by:
  5809 ;;		_main
  5810 ;; This function uses a non-reentrant model
  5811 ;;
  5812                           
  5813     0BD4                     _menu_screen:	
  5814                           ;psect for function _menu_screen
  5815                           
  5816                           
  5817                           ;incstack = 0
  5818                           ; Regs used in _menu_screen: [wreg-fsr0h+status,2+status,0+pclath+btemp1+cstack]
  5819                           ;menu_screen@key stored from wreg
  5820     0BD4  1283               	bcf	3,5	;RP0=0, select bank0
  5821     0BD5  1303               	bcf	3,6	;RP1=0, select bank0
  5822     0BD6  00A5               	movwf	menu_screen@key
  5823     0BD7                     l4300:
  5824                           
  5825                           ;car_black_box_def.c: 210: unsigned char menu_screen(unsigned char key, unsigned char re
      +                          set_flag);car_black_box_def.c: 211: {;car_black_box_def.c: 213:     if (reset_flag == 0x
      +                          22)
  5826     0BD7  3022               	movlw	34
  5827     0BD8  0622               	xorwf	menu_screen@reset_flag,w
  5828     0BD9  1D03               	btfss	3,2
  5829     0BDA  2BDC               	goto	u4431
  5830     0BDB  2BDD               	goto	u4430
  5831     0BDC                     u4431:
  5832     0BDC  2BE7               	goto	l4308
  5833     0BDD                     u4430:
  5834     0BDD                     l4302:
  5835                           
  5836                           ;car_black_box_def.c: 214:     {;car_black_box_def.c: 215:         clear_screen();
  5837     0BDD  160A  118A  2266  120A  158A  	fcall	_clear_screen
  5838     0BE2                     l4304:
  5839                           
  5840                           ;car_black_box_def.c: 216:         menu_pos = 0;
  5841     0BE2  1283               	bcf	3,5	;RP0=0, select bank0
  5842     0BE3  1303               	bcf	3,6	;RP1=0, select bank0
  5843     0BE4  01EA               	clrf	_menu_pos
  5844     0BE5                     l4306:
  5845                           
  5846                           ;car_black_box_def.c: 217:         return_time = 5;
  5847     0BE5  3005               	movlw	5
  5848     0BE6  00EB               	movwf	_return_time
  5849     0BE7                     l4308:
  5850                           
  5851                           ;car_black_box_def.c: 220:     if (return_time == 0)
  5852     0BE7  086B               	movf	_return_time,w
  5853     0BE8  1D03               	btfss	3,2
  5854     0BE9  2BEB               	goto	u4441
  5855     0BEA  2BEC               	goto	u4440
  5856     0BEB                     u4441:
  5857     0BEB  2BEE               	goto	l4314
  5858     0BEC                     u4440:
  5859     0BEC                     l4310:
  5860                           
  5861                           ;car_black_box_def.c: 221:         return 0xF0;
  5862     0BEC  30F0               	movlw	240
  5863     0BED  2C82               	goto	l411
  5864     0BEE                     l4314:
  5865                           
  5866                           ;car_black_box_def.c: 224:     if (key == 0x2F && menu_pos < 4)
  5867     0BEE  302F               	movlw	47
  5868     0BEF  0625               	xorwf	menu_screen@key,w
  5869     0BF0  1D03               	btfss	3,2
  5870     0BF1  2BF3               	goto	u4451
  5871     0BF2  2BF4               	goto	u4450
  5872     0BF3                     u4451:
  5873     0BF3  2C06               	goto	l4324
  5874     0BF4                     u4450:
  5875     0BF4                     l4316:
  5876     0BF4  3004               	movlw	4
  5877     0BF5  026A               	subwf	_menu_pos,w
  5878     0BF6  1803               	skipnc
  5879     0BF7  2BF9               	goto	u4461
  5880     0BF8  2BFA               	goto	u4460
  5881     0BF9                     u4461:
  5882     0BF9  2C06               	goto	l4324
  5883     0BFA                     u4460:
  5884     0BFA                     l4318:
  5885                           
  5886                           ;car_black_box_def.c: 225:     {;car_black_box_def.c: 226:         menu_pos++;
  5887     0BFA  3001               	movlw	1
  5888     0BFB  07EA               	addwf	_menu_pos,f
  5889     0BFC                     l4320:
  5890                           
  5891                           ;car_black_box_def.c: 227:         clear_screen();
  5892     0BFC  160A  118A  2266  120A  158A  	fcall	_clear_screen
  5893     0C01                     l4322:
  5894                           
  5895                           ;car_black_box_def.c: 228:         return_time = 5;
  5896     0C01  3005               	movlw	5
  5897     0C02  1283               	bcf	3,5	;RP0=0, select bank0
  5898     0C03  1303               	bcf	3,6	;RP1=0, select bank0
  5899     0C04  00EB               	movwf	_return_time
  5900                           
  5901                           ;car_black_box_def.c: 229:     }
  5902     0C05  2C14               	goto	l4334
  5903     0C06                     l4324:
  5904     0C06  3037               	movlw	55
  5905     0C07  0625               	xorwf	menu_screen@key,w
  5906     0C08  1D03               	btfss	3,2
  5907     0C09  2C0B               	goto	u4471
  5908     0C0A  2C0C               	goto	u4470
  5909     0C0B                     u4471:
  5910     0C0B  2C14               	goto	l4334
  5911     0C0C                     u4470:
  5912     0C0C                     l4326:
  5913     0C0C  086A               	movf	_menu_pos,w
  5914     0C0D  1903               	btfsc	3,2
  5915     0C0E  2C10               	goto	u4481
  5916     0C0F  2C11               	goto	u4480
  5917     0C10                     u4481:
  5918     0C10  2C14               	goto	l4334
  5919     0C11                     u4480:
  5920     0C11                     l4328:
  5921                           
  5922                           ;car_black_box_def.c: 232:     {;car_black_box_def.c: 233:         menu_pos--;
  5923     0C11  3001               	movlw	1
  5924     0C12  02EA               	subwf	_menu_pos,f
  5925     0C13  2BFC               	goto	l4320
  5926     0C14                     l4334:
  5927                           
  5928                           ;car_black_box_def.c: 239:     if (menu_pos == 4)
  5929     0C14  3004               	movlw	4
  5930     0C15  066A               	xorwf	_menu_pos,w
  5931     0C16  1D03               	btfss	3,2
  5932     0C17  2C19               	goto	u4491
  5933     0C18  2C1A               	goto	u4490
  5934     0C19                     u4491:
  5935     0C19  2C4D               	goto	l4340
  5936     0C1A                     u4490:
  5937     0C1A                     l4336:
  5938                           
  5939                           ;car_black_box_def.c: 240:     {;car_black_box_def.c: 241:         clcd_print(menu[menu_
      +                          pos - 1], (0x80 + 2));
  5940     0C1A  086A               	movf	_menu_pos,w
  5941     0C1B  00A3               	movwf	??_menu_screen
  5942     0C1C  0723               	addwf	??_menu_screen,w
  5943     0C1D  3ED1               	addlw	(low ((_menu| 0+254)))& (0+255)
  5944     0C1E  0084               	movwf	4
  5945     0C1F  1383               	bcf	3,7	;select IRP bank1
  5946     0C20  0800               	movf	0,w
  5947     0C21  00F6               	movwf	clcd_print@str
  5948     0C22  0A84               	incf	4,f
  5949     0C23  0800               	movf	0,w
  5950     0C24  0384               	decf	4,f
  5951     0C25  00F7               	movwf	clcd_print@str+1
  5952     0C26  3082               	movlw	130
  5953     0C27  00F8               	movwf	clcd_print@addr
  5954     0C28  160A  118A  2494  120A  158A  	fcall	_clcd_print
  5955                           
  5956                           ;car_black_box_def.c: 242:         clcd_print(menu[menu_pos], (0xC0 + 2));
  5957     0C2D  1283               	bcf	3,5	;RP0=0, select bank0
  5958     0C2E  1303               	bcf	3,6	;RP1=0, select bank0
  5959     0C2F  086A               	movf	_menu_pos,w
  5960     0C30  00A3               	movwf	??_menu_screen
  5961     0C31  0723               	addwf	??_menu_screen,w
  5962     0C32  3ED3               	addlw	(low (_menu| 0))& (0+255)
  5963     0C33  0084               	movwf	4
  5964     0C34  1383               	bcf	3,7	;select IRP bank1
  5965     0C35  0800               	movf	0,w
  5966     0C36  00F6               	movwf	clcd_print@str
  5967     0C37  0A84               	incf	4,f
  5968     0C38  0800               	movf	0,w
  5969     0C39  0384               	decf	4,f
  5970     0C3A  00F7               	movwf	clcd_print@str+1
  5971     0C3B  30C2               	movlw	194
  5972     0C3C  00F8               	movwf	clcd_print@addr
  5973     0C3D  160A  118A  2494  120A  158A  	fcall	_clcd_print
  5974     0C42                     l4338:
  5975                           
  5976                           ;car_black_box_def.c: 243:         clcd_putch('*', (0xC0 + 0));
  5977     0C42  30C0               	movlw	192
  5978     0C43  1283               	bcf	3,5	;RP0=0, select bank0
  5979     0C44  1303               	bcf	3,6	;RP1=0, select bank0
  5980     0C45  00A0               	movwf	clcd_putch@addr
  5981     0C46  302A               	movlw	42
  5982     0C47  160A  118A  22C1  120A  158A  	fcall	_clcd_putch
  5983                           
  5984                           ;car_black_box_def.c: 244:     }
  5985     0C4C  2C7F               	goto	l4344
  5986     0C4D                     l4340:
  5987                           
  5988                           ;car_black_box_def.c: 246:     {;car_black_box_def.c: 247:         clcd_print(menu[menu_
      +                          pos], (0x80 + 2));
  5989     0C4D  086A               	movf	_menu_pos,w
  5990     0C4E  00A3               	movwf	??_menu_screen
  5991     0C4F  0723               	addwf	??_menu_screen,w
  5992     0C50  3ED3               	addlw	(low (_menu| 0))& (0+255)
  5993     0C51  0084               	movwf	4
  5994     0C52  1383               	bcf	3,7	;select IRP bank1
  5995     0C53  0800               	movf	0,w
  5996     0C54  00F6               	movwf	clcd_print@str
  5997     0C55  0A84               	incf	4,f
  5998     0C56  0800               	movf	0,w
  5999     0C57  0384               	decf	4,f
  6000     0C58  00F7               	movwf	clcd_print@str+1
  6001     0C59  3082               	movlw	130
  6002     0C5A  00F8               	movwf	clcd_print@addr
  6003     0C5B  160A  118A  2494  120A  158A  	fcall	_clcd_print
  6004                           
  6005                           ;car_black_box_def.c: 248:         clcd_print(menu[menu_pos + 1], (0xC0 + 2));
  6006     0C60  1283               	bcf	3,5	;RP0=0, select bank0
  6007     0C61  1303               	bcf	3,6	;RP1=0, select bank0
  6008     0C62  086A               	movf	_menu_pos,w
  6009     0C63  00A3               	movwf	??_menu_screen
  6010     0C64  0723               	addwf	??_menu_screen,w
  6011     0C65  3ED5               	addlw	(low ((_menu| 0+2)))& (0+255)
  6012     0C66  0084               	movwf	4
  6013     0C67  1383               	bcf	3,7	;select IRP bank1
  6014     0C68  0800               	movf	0,w
  6015     0C69  00F6               	movwf	clcd_print@str
  6016     0C6A  0A84               	incf	4,f
  6017     0C6B  0800               	movf	0,w
  6018     0C6C  0384               	decf	4,f
  6019     0C6D  00F7               	movwf	clcd_print@str+1
  6020     0C6E  30C2               	movlw	194
  6021     0C6F  00F8               	movwf	clcd_print@addr
  6022     0C70  160A  118A  2494  120A  158A  	fcall	_clcd_print
  6023     0C75                     l4342:
  6024                           
  6025                           ;car_black_box_def.c: 249:         clcd_putch('*', (0x80 + 0));
  6026     0C75  3080               	movlw	128
  6027     0C76  1283               	bcf	3,5	;RP0=0, select bank0
  6028     0C77  1303               	bcf	3,6	;RP1=0, select bank0
  6029     0C78  00A0               	movwf	clcd_putch@addr
  6030     0C79  302A               	movlw	42
  6031     0C7A  160A  118A  22C1  120A  158A  	fcall	_clcd_putch
  6032     0C7F                     l4344:
  6033                           
  6034                           ;car_black_box_def.c: 251:     return menu_pos;
  6035     0C7F  1283               	bcf	3,5	;RP0=0, select bank0
  6036     0C80  1303               	bcf	3,6	;RP1=0, select bank0
  6037     0C81  086A               	movf	_menu_pos,w
  6038     0C82                     l411:
  6039     0C82  0008               	return
  6040     0C83                     __end_of_menu_screen:
  6041                           
  6042                           	psect	text9
  6043     0E64                     __ptext9:	
  6044 ;; *************** function _login *****************
  6045 ;; Defined at:
  6046 ;;		line 113 in file "car_black_box_def.c"
  6047 ;; Parameters:    Size  Location     Type
  6048 ;;  key             1    wreg     unsigned char 
  6049 ;;  reset_flag      1    2[BANK0 ] unsigned char 
  6050 ;; Auto vars:     Size  Location     Type
  6051 ;;  key             1   10[BANK0 ] unsigned char 
  6052 ;;  j               2   11[BANK0 ] int 
  6053 ;;  stored_passw    4    6[BANK0 ] unsigned char [4]
  6054 ;; Return value:  Size  Location     Type
  6055 ;;                  1    wreg      unsigned char 
  6056 ;; Registers used:
  6057 ;;		wreg, fsr0l, fsr0h, status,2, status,0, pclath, btemp1, cstack
  6058 ;; Tracked objects:
  6059 ;;		On entry : 0/0
  6060 ;;		On exit  : 0/0
  6061 ;;		Unchanged: 0/0
  6062 ;; Data sizes:     COMMON   BANK0   BANK1   BANK3   BANK2
  6063 ;;      Params:         0       1       0       0       0
  6064 ;;      Locals:         0       7       0       0       0
  6065 ;;      Temps:          0       3       0       0       0
  6066 ;;      Totals:         0      11       0       0       0
  6067 ;;Total ram usage:       11 bytes
  6068 ;; Hardware stack levels used: 1
  6069 ;; Hardware stack levels required when called: 2
  6070 ;; This function calls:
  6071 ;;		___awdiv
  6072 ;;		___awmod
  6073 ;;		_clcd_print
  6074 ;;		_clcd_putch
  6075 ;;		_clcd_write
  6076 ;;		_clear_screen
  6077 ;;		_read_external_eeprom
  6078 ;;		_strncmp
  6079 ;; This function is called by:
  6080 ;;		_main
  6081 ;; This function uses a non-reentrant model
  6082 ;;
  6083                           
  6084     0E64                     _login:	
  6085                           ;psect for function _login
  6086                           
  6087                           
  6088                           ;incstack = 0
  6089                           ; Regs used in _login: [wreg-fsr0h+status,2+status,0+pclath+btemp1+cstack]
  6090                           ;login@key stored from wreg
  6091     0E64  1283               	bcf	3,5	;RP0=0, select bank0
  6092     0E65  1303               	bcf	3,6	;RP1=0, select bank0
  6093     0E66  00AA               	movwf	login@key
  6094     0E67                     l4190:
  6095                           
  6096                           ;car_black_box_def.c: 113: unsigned char login(unsigned char key, unsigned char reset_fl
      +                          ag);car_black_box_def.c: 114: {;car_black_box_def.c: 115:     static char user_passwd[4]
      +                          ;;car_black_box_def.c: 116:     static unsigned char i;;car_black_box_def.c: 117:     st
      +                          atic unsigned char attempts_left;;car_black_box_def.c: 119:     if (reset_flag == 0x11)
  6097     0E67  3011               	movlw	17
  6098     0E68  0622               	xorwf	login@reset_flag,w
  6099     0E69  1D03               	btfss	3,2
  6100     0E6A  2E6C               	goto	u4321
  6101     0E6B  2E6D               	goto	u4320
  6102     0E6C                     u4321:
  6103     0E6C  2E7C               	goto	l4200
  6104     0E6D                     u4320:
  6105     0E6D                     l4192:
  6106                           
  6107                           ;car_black_box_def.c: 120:     {;car_black_box_def.c: 121:         i = 0;
  6108     0E6D  01E9               	clrf	login@i
  6109     0E6E                     l4194:
  6110                           
  6111                           ;car_black_box_def.c: 122:         attempts_left = 3;
  6112     0E6E  3003               	movlw	3
  6113     0E6F  00E8               	movwf	login@attempts_left
  6114                           
  6115                           ;car_black_box_def.c: 123:         user_passwd[0] = '\0';
  6116     0E70  1683               	bsf	3,5	;RP0=1, select bank1
  6117     0E71  1303               	bcf	3,6	;RP1=0, select bank1
  6118     0E72  01C3               	clrf	login@user_passwd^(0+128)
  6119                           
  6120                           ;car_black_box_def.c: 124:         user_passwd[1] = '\0';
  6121     0E73  01C4               	clrf	(login@user_passwd^(0+128)+1)
  6122                           
  6123                           ;car_black_box_def.c: 125:         user_passwd[2] = '\0';
  6124     0E74  01C5               	clrf	(login@user_passwd^(0+128)+2)
  6125                           
  6126                           ;car_black_box_def.c: 126:         user_passwd[3] = '\0';
  6127     0E75  01C6               	clrf	(login@user_passwd^(0+128)+3)
  6128     0E76                     l4196:
  6129                           
  6130                           ;car_black_box_def.c: 127:         key = 0x3F;
  6131     0E76  303F               	movlw	63
  6132     0E77  1283               	bcf	3,5	;RP0=0, select bank0
  6133     0E78  1303               	bcf	3,6	;RP1=0, select bank0
  6134     0E79  00AA               	movwf	login@key
  6135     0E7A                     l4198:
  6136                           
  6137                           ;car_black_box_def.c: 128:         return_time = 5;
  6138     0E7A  3005               	movlw	5
  6139     0E7B  00EB               	movwf	_return_time
  6140     0E7C                     l4200:
  6141                           
  6142                           ;car_black_box_def.c: 132:     if (return_time == 0)
  6143     0E7C  086B               	movf	_return_time,w
  6144     0E7D  1D03               	btfss	3,2
  6145     0E7E  2E80               	goto	u4331
  6146     0E7F  2E81               	goto	u4330
  6147     0E80                     u4331:
  6148     0E80  2E83               	goto	l4206
  6149     0E81                     u4330:
  6150     0E81                     l4202:
  6151                           
  6152                           ;car_black_box_def.c: 133:         return 0xF0;
  6153     0E81  30F0               	movlw	240
  6154     0E82  2FFF               	goto	l393
  6155     0E83                     l4206:
  6156                           
  6157                           ;car_black_box_def.c: 136:     if (key == 0x37 && i < 4)
  6158     0E83  3037               	movlw	55
  6159     0E84  062A               	xorwf	login@key,w
  6160     0E85  1D03               	btfss	3,2
  6161     0E86  2E88               	goto	u4341
  6162     0E87  2E89               	goto	u4340
  6163     0E88                     u4341:
  6164     0E88  2EA5               	goto	l4218
  6165     0E89                     u4340:
  6166     0E89                     l4208:
  6167     0E89  3004               	movlw	4
  6168     0E8A  0269               	subwf	login@i,w
  6169     0E8B  1803               	skipnc
  6170     0E8C  2E8E               	goto	u4351
  6171     0E8D  2E8F               	goto	u4350
  6172     0E8E                     u4351:
  6173     0E8E  2EA5               	goto	l4218
  6174     0E8F                     u4350:
  6175     0E8F                     l4210:
  6176                           
  6177                           ;car_black_box_def.c: 137:     {;car_black_box_def.c: 138:         user_passwd[i++] = '1
      +                          ';
  6178     0E8F  0869               	movf	login@i,w
  6179     0E90  3EC3               	addlw	(low (login@user_passwd| 0))& (0+255)
  6180     0E91  0084               	movwf	4
  6181     0E92  3031               	movlw	49
  6182     0E93  1383               	bcf	3,7	;select IRP bank1
  6183     0E94  0080               	movwf	0
  6184     0E95                     l4212:
  6185     0E95  3001               	movlw	1
  6186     0E96  07E9               	addwf	login@i,f
  6187     0E97                     l4214:
  6188                           
  6189                           ;car_black_box_def.c: 139:         clcd_putch('*', (0xC0 + 4 + i));
  6190     0E97  0869               	movf	login@i,w
  6191     0E98  3EC4               	addlw	196
  6192     0E99  00A0               	movwf	clcd_putch@addr
  6193     0E9A  302A               	movlw	42
  6194     0E9B  160A  118A  22C1  120A  158A  	fcall	_clcd_putch
  6195     0EA0                     l4216:
  6196                           
  6197                           ;car_black_box_def.c: 140:         return_time = 5;
  6198     0EA0  3005               	movlw	5
  6199     0EA1  1283               	bcf	3,5	;RP0=0, select bank0
  6200     0EA2  1303               	bcf	3,6	;RP1=0, select bank0
  6201     0EA3  00EB               	movwf	_return_time
  6202                           
  6203                           ;car_black_box_def.c: 141:     }
  6204     0EA4  2EC3               	goto	l4230
  6205     0EA5                     l4218:
  6206     0EA5  302F               	movlw	47
  6207     0EA6  062A               	xorwf	login@key,w
  6208     0EA7  1D03               	btfss	3,2
  6209     0EA8  2EAA               	goto	u4361
  6210     0EA9  2EAB               	goto	u4360
  6211     0EAA                     u4361:
  6212     0EAA  2EC3               	goto	l4230
  6213     0EAB                     u4360:
  6214     0EAB                     l4220:
  6215     0EAB  3004               	movlw	4
  6216     0EAC  0269               	subwf	login@i,w
  6217     0EAD  1803               	skipnc
  6218     0EAE  2EB0               	goto	u4371
  6219     0EAF  2EB1               	goto	u4370
  6220     0EB0                     u4371:
  6221     0EB0  2EC3               	goto	l4230
  6222     0EB1                     u4370:
  6223     0EB1                     l4222:
  6224                           
  6225                           ;car_black_box_def.c: 143:     {;car_black_box_def.c: 144:         user_passwd[i++] = '0
      +                          ';
  6226     0EB1  0869               	movf	login@i,w
  6227     0EB2  3EC3               	addlw	(low (login@user_passwd| 0))& (0+255)
  6228     0EB3  0084               	movwf	4
  6229     0EB4  3030               	movlw	48
  6230     0EB5  1383               	bcf	3,7	;select IRP bank1
  6231     0EB6  0080               	movwf	0
  6232     0EB7                     l4224:
  6233     0EB7  3001               	movlw	1
  6234     0EB8  07E9               	addwf	login@i,f
  6235     0EB9                     l4226:
  6236                           
  6237                           ;car_black_box_def.c: 145:         clcd_putch('*', (0xC0 + 4 + i));
  6238     0EB9  0869               	movf	login@i,w
  6239     0EBA  3EC4               	addlw	196
  6240     0EBB  00A0               	movwf	clcd_putch@addr
  6241     0EBC  302A               	movlw	42
  6242     0EBD  160A  118A  22C1  120A  158A  	fcall	_clcd_putch
  6243     0EC2  2EA0               	goto	l4216
  6244     0EC3                     l4230:
  6245                           
  6246                           ;car_black_box_def.c: 150:     if (i == 4)
  6247     0EC3  3004               	movlw	4
  6248     0EC4  0669               	xorwf	login@i,w
  6249     0EC5  1D03               	btfss	3,2
  6250     0EC6  2EC8               	goto	u4381
  6251     0EC7  2EC9               	goto	u4380
  6252     0EC8                     u4381:
  6253     0EC8  2FFE               	goto	l4296
  6254     0EC9                     u4380:
  6255     0EC9                     l4232:
  6256                           
  6257                           ;car_black_box_def.c: 151:     {;car_black_box_def.c: 153:         char stored_passwd[4]
      +                          ;;car_black_box_def.c: 154:         for (int j = 0; j < 4; j++)
  6258     0EC9  01AB               	clrf	login@j
  6259     0ECA  01AC               	clrf	login@j+1
  6260     0ECB                     l4238:
  6261                           
  6262                           ;car_black_box_def.c: 155:         {;car_black_box_def.c: 156:             stored_passwd
      +                          [j] = read_external_eeprom(j);
  6263     0ECB  1283               	bcf	3,5	;RP0=0, select bank0
  6264     0ECC  1303               	bcf	3,6	;RP1=0, select bank0
  6265     0ECD  082B               	movf	login@j,w
  6266     0ECE  3E26               	addlw	(low (login@stored_passwd| 0))& (0+255)
  6267     0ECF  0084               	movwf	4
  6268     0ED0  082B               	movf	login@j,w
  6269     0ED1  160A  118A  243B  120A  158A  	fcall	_read_external_eeprom
  6270     0ED6  1383               	bcf	3,7	;select IRP bank0
  6271     0ED7  0080               	movwf	0
  6272     0ED8                     l4240:
  6273                           
  6274                           ;car_black_box_def.c: 157:         }
  6275     0ED8  3001               	movlw	1
  6276     0ED9  1283               	bcf	3,5	;RP0=0, select bank0
  6277     0EDA  1303               	bcf	3,6	;RP1=0, select bank0
  6278     0EDB  07AB               	addwf	login@j,f
  6279     0EDC  1803               	skipnc
  6280     0EDD  0AAC               	incf	login@j+1,f
  6281     0EDE  3000               	movlw	0
  6282     0EDF  07AC               	addwf	login@j+1,f
  6283     0EE0                     l4242:
  6284     0EE0  082C               	movf	login@j+1,w
  6285     0EE1  3A80               	xorlw	128
  6286     0EE2  00FF               	movwf	btemp1
  6287     0EE3  3080               	movlw	128
  6288     0EE4  027F               	subwf	btemp1,w
  6289     0EE5  1D03               	skipz
  6290     0EE6  2EE9               	goto	u4395
  6291     0EE7  3004               	movlw	4
  6292     0EE8  022B               	subwf	login@j,w
  6293     0EE9                     u4395:
  6294     0EE9  1C03               	skipc
  6295     0EEA  2EEC               	goto	u4391
  6296     0EEB  2EED               	goto	u4390
  6297     0EEC                     u4391:
  6298     0EEC  2ECB               	goto	l4238
  6299     0EED                     u4390:
  6300     0EED                     l4244:
  6301                           
  6302                           ;car_black_box_def.c: 160:         if (!strncmp(user_passwd, stored_passwd, 4))
  6303     0EED  30C3               	movlw	(low (login@user_passwd| 0))& (0+255)
  6304     0EEE  00F2               	movwf	strncmp@l
  6305     0EEF  3026               	movlw	(low (login@stored_passwd| 0))& (0+255)
  6306     0EF0  00F3               	movwf	strncmp@r
  6307     0EF1  3004               	movlw	4
  6308     0EF2  00F4               	movwf	strncmp@n
  6309     0EF3  3000               	movlw	0
  6310     0EF4  00F5               	movwf	strncmp@n+1
  6311     0EF5  160A  118A  260A  120A  158A  	fcall	_strncmp
  6312     0EFA  0872               	movf	?_strncmp,w
  6313     0EFB  0473               	iorwf	?_strncmp+1,w
  6314     0EFC  1D03               	btfss	3,2
  6315     0EFD  2EFF               	goto	u4401
  6316     0EFE  2F00               	goto	u4400
  6317     0EFF                     u4401:
  6318     0EFF  2F27               	goto	l4260
  6319     0F00                     u4400:
  6320     0F00                     l4246:
  6321                           
  6322                           ;car_black_box_def.c: 161:         {;car_black_box_def.c: 162:             clear_screen(
      +                          );
  6323     0F00  160A  118A  2266  120A  158A  	fcall	_clear_screen
  6324     0F05                     l4248:
  6325                           
  6326                           ;car_black_box_def.c: 163:             clcd_print("Login Success", (0x80 + 0));
  6327     0F05  30C7               	movlw	low (STR_16| (0+32768))
  6328     0F06  00F6               	movwf	clcd_print@str
  6329     0F07  3090               	movlw	high (STR_16| (0+32768))
  6330     0F08  00F7               	movwf	clcd_print@str+1
  6331     0F09  3080               	movlw	128
  6332     0F0A  00F8               	movwf	clcd_print@addr
  6333     0F0B  160A  118A  2494  120A  158A  	fcall	_clcd_print
  6334     0F10                     l4250:
  6335                           
  6336                           ;car_black_box_def.c: 164:             clcd_write(0x0C, 0);
  6337     0F10  01F2               	clrf	clcd_write@mode
  6338     0F11  300C               	movlw	12
  6339     0F12  160A  118A  230D  120A  158A  	fcall	_clcd_write
  6340     0F17                     l4252:
  6341                           
  6342                           ;car_black_box_def.c: 165:             _delay((unsigned long)((3000)*(20000000/4000.0)))
      +                          ;
  6343     0F17  304D               	movlw	77
  6344     0F18  1283               	bcf	3,5	;RP0=0, select bank0
  6345     0F19  1303               	bcf	3,6	;RP1=0, select bank0
  6346     0F1A  00A5               	movwf	??_login+2
  6347     0F1B  3019               	movlw	25
  6348     0F1C  00A4               	movwf	??_login+1
  6349     0F1D  304F               	movlw	79
  6350     0F1E  00A3               	movwf	??_login
  6351     0F1F                     u5587:
  6352     0F1F  0BA3               	decfsz	??_login,f
  6353     0F20  2F1F               	goto	u5587
  6354     0F21  0BA4               	decfsz	??_login+1,f
  6355     0F22  2F1F               	goto	u5587
  6356     0F23  0BA5               	decfsz	??_login+2,f
  6357     0F24  2F1F               	goto	u5587
  6358     0F25                     l4254:
  6359                           
  6360                           ;car_black_box_def.c: 166:             return 0x0F;
  6361     0F25  300F               	movlw	15
  6362     0F26  2FFF               	goto	l393
  6363     0F27                     l4260:
  6364                           
  6365                           ;car_black_box_def.c: 169:         {;car_black_box_def.c: 170:             attempts_left
      +                          --;
  6366     0F27  3001               	movlw	1
  6367     0F28  1283               	bcf	3,5	;RP0=0, select bank0
  6368     0F29  1303               	bcf	3,6	;RP1=0, select bank0
  6369     0F2A  02E8               	subwf	login@attempts_left,f
  6370                           
  6371                           ;car_black_box_def.c: 171:             if (attempts_left == 0)
  6372     0F2B  0868               	movf	login@attempts_left,w
  6373     0F2C  1D03               	btfss	3,2
  6374     0F2D  2F2F               	goto	u4411
  6375     0F2E  2F30               	goto	u4410
  6376     0F2F                     u4411:
  6377     0F2F  2FA0               	goto	l4276
  6378     0F30                     u4410:
  6379     0F30                     l4262:
  6380                           
  6381                           ;car_black_box_def.c: 172:             {;car_black_box_def.c: 173:                 clear
      +                          _screen();
  6382     0F30  160A  118A  2266  120A  158A  	fcall	_clear_screen
  6383                           
  6384                           ;car_black_box_def.c: 174:                 clcd_write(0x0C, 0);
  6385     0F35  01F2               	clrf	clcd_write@mode
  6386     0F36  300C               	movlw	12
  6387     0F37  160A  118A  230D  120A  158A  	fcall	_clcd_write
  6388     0F3C                     l4264:
  6389                           
  6390                           ;car_black_box_def.c: 175:                 clcd_print("You are blocked", (0x80 + 0));
  6391     0F3C  306D               	movlw	low (STR_17| (0+32768))
  6392     0F3D  00F6               	movwf	clcd_print@str
  6393     0F3E  3090               	movlw	high (STR_17| (0+32768))
  6394     0F3F  00F7               	movwf	clcd_print@str+1
  6395     0F40  3080               	movlw	128
  6396     0F41  00F8               	movwf	clcd_print@addr
  6397     0F42  160A  118A  2494  120A  158A  	fcall	_clcd_print
  6398     0F47                     l4266:
  6399                           
  6400                           ;car_black_box_def.c: 176:                 clcd_print("Wait for", (0xC0 + 0));
  6401     0F47  304E               	movlw	low (STR_18| (0+32768))
  6402     0F48  00F6               	movwf	clcd_print@str
  6403     0F49  3091               	movlw	high (STR_18| (0+32768))
  6404     0F4A  00F7               	movwf	clcd_print@str+1
  6405     0F4B  30C0               	movlw	192
  6406     0F4C  00F8               	movwf	clcd_print@addr
  6407     0F4D  160A  118A  2494  120A  158A  	fcall	_clcd_print
  6408     0F52                     l4268:
  6409                           
  6410                           ;car_black_box_def.c: 177:                 clcd_print("secs", (0xC0 + 12));
  6411     0F52  3068               	movlw	low (STR_19| (0+32768))
  6412     0F53  00F6               	movwf	clcd_print@str
  6413     0F54  3091               	movlw	high (STR_19| (0+32768))
  6414     0F55  00F7               	movwf	clcd_print@str+1
  6415     0F56  30CC               	movlw	204
  6416     0F57  00F8               	movwf	clcd_print@addr
  6417     0F58  160A  118A  2494  120A  158A  	fcall	_clcd_print
  6418     0F5D                     l4270:
  6419                           
  6420                           ;car_black_box_def.c: 179:                 sec = 60;
  6421     0F5D  303C               	movlw	60
  6422     0F5E  1283               	bcf	3,5	;RP0=0, select bank0
  6423     0F5F  1303               	bcf	3,6	;RP1=0, select bank0
  6424     0F60  00EC               	movwf	_sec
  6425                           
  6426                           ;car_black_box_def.c: 181:                 while (sec > 0)
  6427     0F61  2F96               	goto	l4274
  6428     0F62                     l4272:
  6429                           
  6430                           ;car_black_box_def.c: 182:                 {;car_black_box_def.c: 183:                  
      +                             clcd_putch(sec / 10 + '0', (0xC0 + 9));
  6431     0F62  30C9               	movlw	201
  6432     0F63  00A0               	movwf	clcd_putch@addr
  6433     0F64  300A               	movlw	10
  6434     0F65  00F2               	movwf	___awdiv@divisor
  6435     0F66  3000               	movlw	0
  6436     0F67  00F3               	movwf	___awdiv@divisor+1
  6437     0F68  086C               	movf	_sec,w
  6438     0F69  00A3               	movwf	??_login
  6439     0F6A  01A4               	clrf	??_login+1
  6440     0F6B  0823               	movf	??_login,w
  6441     0F6C  00F4               	movwf	___awdiv@dividend
  6442     0F6D  0824               	movf	??_login+1,w
  6443     0F6E  00F5               	movwf	___awdiv@dividend+1
  6444     0F6F  120A  158A  20F8  120A  158A  	fcall	___awdiv
  6445     0F74  0872               	movf	?___awdiv,w
  6446     0F75  3E30               	addlw	48
  6447     0F76  160A  118A  22C1  120A  158A  	fcall	_clcd_putch
  6448                           
  6449                           ;car_black_box_def.c: 184:                     clcd_putch(sec % 10 + '0', (0xC0 + 10));
  6450     0F7B  30CA               	movlw	202
  6451     0F7C  1283               	bcf	3,5	;RP0=0, select bank0
  6452     0F7D  1303               	bcf	3,6	;RP1=0, select bank0
  6453     0F7E  00A0               	movwf	clcd_putch@addr
  6454     0F7F  300A               	movlw	10
  6455     0F80  00F2               	movwf	___awmod@divisor
  6456     0F81  3000               	movlw	0
  6457     0F82  00F3               	movwf	___awmod@divisor+1
  6458     0F83  086C               	movf	_sec,w
  6459     0F84  00A3               	movwf	??_login
  6460     0F85  01A4               	clrf	??_login+1
  6461     0F86  0823               	movf	??_login,w
  6462     0F87  00F4               	movwf	___awmod@dividend
  6463     0F88  0824               	movf	??_login+1,w
  6464     0F89  00F5               	movwf	___awmod@dividend+1
  6465     0F8A  160A  118A  26F8  120A  158A  	fcall	___awmod
  6466     0F8F  0872               	movf	?___awmod,w
  6467     0F90  3E30               	addlw	48
  6468     0F91  160A  118A  22C1  120A  158A  	fcall	_clcd_putch
  6469     0F96                     l4274:
  6470                           
  6471                           ;car_black_box_def.c: 181:                 while (sec > 0)
  6472     0F96  1283               	bcf	3,5	;RP0=0, select bank0
  6473     0F97  1303               	bcf	3,6	;RP1=0, select bank0
  6474     0F98  086C               	movf	_sec,w
  6475     0F99  1D03               	btfss	3,2
  6476     0F9A  2F9C               	goto	u4421
  6477     0F9B  2F9D               	goto	u4420
  6478     0F9C                     u4421:
  6479     0F9C  2F62               	goto	l4272
  6480     0F9D                     u4420:
  6481     0F9D                     l405:
  6482                           
  6483                           ;car_black_box_def.c: 187:                 attempts_left = 3;
  6484     0F9D  3003               	movlw	3
  6485     0F9E  00E8               	movwf	login@attempts_left
  6486                           
  6487                           ;car_black_box_def.c: 188:             }
  6488     0F9F  2FDB               	goto	l4284
  6489     0FA0                     l4276:
  6490                           
  6491                           ;car_black_box_def.c: 190:             {;car_black_box_def.c: 191:                 clear
      +                          _screen();
  6492     0FA0  160A  118A  2266  120A  158A  	fcall	_clear_screen
  6493                           
  6494                           ;car_black_box_def.c: 192:                 clcd_write(0x0C, 0);
  6495     0FA5  01F2               	clrf	clcd_write@mode
  6496     0FA6  300C               	movlw	12
  6497     0FA7  160A  118A  230D  120A  158A  	fcall	_clcd_write
  6498     0FAC                     l4278:
  6499                           
  6500                           ;car_black_box_def.c: 194:                 clcd_print("Wrong Password", (0x80 + 0));
  6501     0FAC  308D               	movlw	low (STR_20| (0+32768))
  6502     0FAD  00F6               	movwf	clcd_print@str
  6503     0FAE  3090               	movlw	high (STR_20| (0+32768))
  6504     0FAF  00F7               	movwf	clcd_print@str+1
  6505     0FB0  3080               	movlw	128
  6506     0FB1  00F8               	movwf	clcd_print@addr
  6507     0FB2  160A  118A  2494  120A  158A  	fcall	_clcd_print
  6508     0FB7                     l4280:
  6509                           
  6510                           ;car_black_box_def.c: 195:                 clcd_putch(attempts_left + '0', (0xC0 + 0));
  6511     0FB7  30C0               	movlw	192
  6512     0FB8  1283               	bcf	3,5	;RP0=0, select bank0
  6513     0FB9  1303               	bcf	3,6	;RP1=0, select bank0
  6514     0FBA  00A0               	movwf	clcd_putch@addr
  6515     0FBB  0868               	movf	login@attempts_left,w
  6516     0FBC  3E30               	addlw	48
  6517     0FBD  160A  118A  22C1  120A  158A  	fcall	_clcd_putch
  6518                           
  6519                           ;car_black_box_def.c: 196:                 clcd_print("attempts left", (0xC0 + 2));
  6520     0FC2  30D5               	movlw	low (STR_21| (0+32768))
  6521     0FC3  00F6               	movwf	clcd_print@str
  6522     0FC4  3090               	movlw	high (STR_21| (0+32768))
  6523     0FC5  00F7               	movwf	clcd_print@str+1
  6524     0FC6  30C2               	movlw	194
  6525     0FC7  00F8               	movwf	clcd_print@addr
  6526     0FC8  160A  118A  2494  120A  158A  	fcall	_clcd_print
  6527     0FCD                     l4282:
  6528                           
  6529                           ;car_black_box_def.c: 197:                 _delay((unsigned long)((2000)*(20000000/4000.
      +                          0)));
  6530     0FCD  3033               	movlw	51
  6531     0FCE  1283               	bcf	3,5	;RP0=0, select bank0
  6532     0FCF  1303               	bcf	3,6	;RP1=0, select bank0
  6533     0FD0  00A5               	movwf	??_login+2
  6534     0FD1  30BB               	movlw	187
  6535     0FD2  00A4               	movwf	??_login+1
  6536     0FD3  30DF               	movlw	223
  6537     0FD4  00A3               	movwf	??_login
  6538     0FD5                     u5597:
  6539     0FD5  0BA3               	decfsz	??_login,f
  6540     0FD6  2FD5               	goto	u5597
  6541     0FD7  0BA4               	decfsz	??_login+1,f
  6542     0FD8  2FD5               	goto	u5597
  6543     0FD9  0BA5               	decfsz	??_login+2,f
  6544     0FDA  2FD5               	goto	u5597
  6545     0FDB                     l4284:
  6546                           
  6547                           ;car_black_box_def.c: 199:             clear_screen();
  6548     0FDB  160A  118A  2266  120A  158A  	fcall	_clear_screen
  6549     0FE0                     l4286:
  6550                           
  6551                           ;car_black_box_def.c: 200:             clcd_print("ENTER PASSWORD", (0x80 + 1));
  6552     0FE0  309C               	movlw	low (STR_9| (0+32768))
  6553     0FE1  00F6               	movwf	clcd_print@str
  6554     0FE2  3090               	movlw	high (STR_9| (0+32768))
  6555     0FE3  00F7               	movwf	clcd_print@str+1
  6556     0FE4  3081               	movlw	129
  6557     0FE5  00F8               	movwf	clcd_print@addr
  6558     0FE6  160A  118A  2494  120A  158A  	fcall	_clcd_print
  6559     0FEB                     l4288:
  6560                           
  6561                           ;car_black_box_def.c: 201:             clcd_write((0xC0 + 4), 0);
  6562     0FEB  01F2               	clrf	clcd_write@mode
  6563     0FEC  30C4               	movlw	196
  6564     0FED  160A  118A  230D  120A  158A  	fcall	_clcd_write
  6565     0FF2                     l4290:
  6566                           
  6567                           ;car_black_box_def.c: 202:             clcd_write(0x0F, 0);
  6568     0FF2  01F2               	clrf	clcd_write@mode
  6569     0FF3  300F               	movlw	15
  6570     0FF4  160A  118A  230D  120A  158A  	fcall	_clcd_write
  6571     0FF9                     l4292:
  6572                           
  6573                           ;car_black_box_def.c: 203:             i = 0;
  6574     0FF9  1283               	bcf	3,5	;RP0=0, select bank0
  6575     0FFA  1303               	bcf	3,6	;RP1=0, select bank0
  6576     0FFB  01E9               	clrf	login@i
  6577     0FFC                     l4294:
  6578                           
  6579                           ;car_black_box_def.c: 204:             return_time = 5;
  6580     0FFC  3005               	movlw	5
  6581     0FFD  00EB               	movwf	_return_time
  6582     0FFE                     l4296:
  6583                           
  6584                           ;car_black_box_def.c: 207:     return 0;
  6585     0FFE  3000               	movlw	0
  6586     0FFF                     l393:
  6587     0FFF  0008               	return
  6588     1000                     __end_of_login:
  6589                           
  6590                           	psect	text10
  6591     17A6                     __ptext10:	
  6592 ;; *************** function _log_event *****************
  6593 ;; Defined at:
  6594 ;;		line 89 in file "car_black_box_def.c"
  6595 ;; Parameters:    Size  Location     Type
  6596 ;;  event           1    1[BANK0 ] PTR unsigned char 
  6597 ;;		 -> main@event(3), 
  6598 ;;  speed           1    2[BANK0 ] unsigned char 
  6599 ;; Auto vars:     Size  Location     Type
  6600 ;;		None
  6601 ;; Return value:  Size  Location     Type
  6602 ;;                  1    wreg      void 
  6603 ;; Registers used:
  6604 ;;		wreg, fsr0l, fsr0h, status,2, status,0, pclath, btemp1, cstack
  6605 ;; Tracked objects:
  6606 ;;		On entry : 0/0
  6607 ;;		On exit  : 0/0
  6608 ;;		Unchanged: 0/0
  6609 ;; Data sizes:     COMMON   BANK0   BANK1   BANK3   BANK2
  6610 ;;      Params:         0       2       0       0       0
  6611 ;;      Locals:         0       0       0       0       0
  6612 ;;      Temps:          0       2       0       0       0
  6613 ;;      Totals:         0       4       0       0       0
  6614 ;;Total ram usage:        4 bytes
  6615 ;; Hardware stack levels used: 1
  6616 ;; Hardware stack levels required when called: 3
  6617 ;; This function calls:
  6618 ;;		___awdiv
  6619 ;;		___awmod
  6620 ;;		_get_time
  6621 ;;		_log_car_event
  6622 ;;		_strncpy
  6623 ;; This function is called by:
  6624 ;;		_main
  6625 ;; This function uses a non-reentrant model
  6626 ;;
  6627                           
  6628     17A6                     _log_event:	
  6629                           ;psect for function _log_event
  6630                           
  6631     17A6                     l4172:	
  6632                           ;incstack = 0
  6633                           ; Regs used in _log_event: [wreg-fsr0h+status,2+status,0+pclath+btemp1+cstack]
  6634                           
  6635                           
  6636                           ;car_black_box_def.c: 89: void log_event(char event[], unsigned char speed);car_black_bo
      +                          x_def.c: 90: {;car_black_box_def.c: 92:     log_flag = 1;
  6637     17A6  3001               	movlw	1
  6638     17A7  1283               	bcf	3,5	;RP0=0, select bank0
  6639     17A8  1303               	bcf	3,6	;RP1=0, select bank0
  6640     17A9  00EE               	movwf	_log_flag
  6641     17AA                     l4174:
  6642                           
  6643                           ;car_black_box_def.c: 93:     get_time();
  6644     17AA  120A  158A  215B  160A  118A  	fcall	_get_time
  6645     17AF                     l4176:
  6646                           
  6647                           ;car_black_box_def.c: 95:     strncpy(log, time, 6);
  6648     17AF  30A7               	movlw	(low (_log| 0))& (0+255)
  6649     17B0  00F2               	movwf	strncpy@d
  6650     17B1  30B2               	movlw	(low (_time| 0))& (0+255)
  6651     17B2  00F3               	movwf	strncpy@s
  6652     17B3  3006               	movlw	6
  6653     17B4  00F4               	movwf	strncpy@n
  6654     17B5  3000               	movlw	0
  6655     17B6  00F5               	movwf	strncpy@n+1
  6656     17B7  160A  118A  2556  160A  118A  	fcall	_strncpy
  6657     17BC                     l4178:
  6658                           
  6659                           ;car_black_box_def.c: 97:     strncpy(&log[6], event, 2);
  6660     17BC  30AD               	movlw	(low ((_log| 0+6)))& (0+255)
  6661     17BD  00F2               	movwf	strncpy@d
  6662     17BE  1283               	bcf	3,5	;RP0=0, select bank0
  6663     17BF  1303               	bcf	3,6	;RP1=0, select bank0
  6664     17C0  0821               	movf	log_event@event,w
  6665     17C1  00F3               	movwf	strncpy@s
  6666     17C2  3002               	movlw	2
  6667     17C3  00F4               	movwf	strncpy@n
  6668     17C4  3000               	movlw	0
  6669     17C5  00F5               	movwf	strncpy@n+1
  6670     17C6  160A  118A  2556  160A  118A  	fcall	_strncpy
  6671                           
  6672                           ;car_black_box_def.c: 99:     log[8] = speed / 10 + '0';
  6673     17CB  300A               	movlw	10
  6674     17CC  00F2               	movwf	___awdiv@divisor
  6675     17CD  3000               	movlw	0
  6676     17CE  00F3               	movwf	___awdiv@divisor+1
  6677     17CF  1283               	bcf	3,5	;RP0=0, select bank0
  6678     17D0  1303               	bcf	3,6	;RP1=0, select bank0
  6679     17D1  0822               	movf	log_event@speed,w
  6680     17D2  00A3               	movwf	??_log_event
  6681     17D3  01A4               	clrf	??_log_event+1
  6682     17D4  0823               	movf	??_log_event,w
  6683     17D5  00F4               	movwf	___awdiv@dividend
  6684     17D6  0824               	movf	??_log_event+1,w
  6685     17D7  00F5               	movwf	___awdiv@dividend+1
  6686     17D8  120A  158A  20F8  160A  118A  	fcall	___awdiv
  6687     17DD  0872               	movf	?___awdiv,w
  6688     17DE  3E30               	addlw	48
  6689     17DF  1683               	bsf	3,5	;RP0=1, select bank1
  6690     17E0  1303               	bcf	3,6	;RP1=0, select bank1
  6691     17E1  00AF               	movwf	(_log^(0+128)+8)
  6692                           
  6693                           ;car_black_box_def.c: 100:     log[9] = speed % 10 + '0';
  6694     17E2  300A               	movlw	10
  6695     17E3  00F2               	movwf	___awmod@divisor
  6696     17E4  3000               	movlw	0
  6697     17E5  00F3               	movwf	___awmod@divisor+1
  6698     17E6  1283               	bcf	3,5	;RP0=0, select bank0
  6699     17E7  1303               	bcf	3,6	;RP1=0, select bank0
  6700     17E8  0822               	movf	log_event@speed,w
  6701     17E9  00A3               	movwf	??_log_event
  6702     17EA  01A4               	clrf	??_log_event+1
  6703     17EB  0823               	movf	??_log_event,w
  6704     17EC  00F4               	movwf	___awmod@dividend
  6705     17ED  0824               	movf	??_log_event+1,w
  6706     17EE  00F5               	movwf	___awmod@dividend+1
  6707     17EF  160A  118A  26F8  160A  118A  	fcall	___awmod
  6708     17F4  0872               	movf	?___awmod,w
  6709     17F5  3E30               	addlw	48
  6710     17F6  1683               	bsf	3,5	;RP0=1, select bank1
  6711     17F7  1303               	bcf	3,6	;RP1=0, select bank1
  6712     17F8  00B0               	movwf	(_log^(0+128)+9)
  6713     17F9                     l4180:
  6714                           
  6715                           ;car_black_box_def.c: 101:     log[10] = '\0';
  6716     17F9  01B1               	clrf	(_log^(0+128)+10)
  6717     17FA                     l4182:
  6718                           
  6719                           ;car_black_box_def.c: 104:     log_car_event();
  6720     17FA  160A  118A  2466  160A  118A  	fcall	_log_car_event
  6721     17FF                     l379:
  6722     17FF  0008               	return
  6723     1800                     __end_of_log_event:
  6724                           
  6725                           	psect	text11
  6726     1556                     __ptext11:	
  6727 ;; *************** function _strncpy *****************
  6728 ;; Defined at:
  6729 ;;		line 3 in file "C:\Program Files\Microchip\xc8\v3.10\pic\sources\c99\common\strncpy.c"
  6730 ;; Parameters:    Size  Location     Type
  6731 ;;  d               1    2[COMMON] PTR unsigned char 
  6732 ;;		 -> log(11), 
  6733 ;;  s               1    3[COMMON] PTR const unsigned char 
  6734 ;;		 -> time(7), main@event(3), 
  6735 ;;  n               2    4[COMMON] unsigned int 
  6736 ;; Auto vars:     Size  Location     Type
  6737 ;;  cp              1    6[COMMON] PTR unsigned char 
  6738 ;;		 -> log(11), 
  6739 ;; Return value:  Size  Location     Type
  6740 ;;                  1    2[COMMON] PTR unsigned char 
  6741 ;; Registers used:
  6742 ;;		wreg, fsr0l, fsr0h, status,2, status,0, btemp1
  6743 ;; Tracked objects:
  6744 ;;		On entry : 0/0
  6745 ;;		On exit  : 0/0
  6746 ;;		Unchanged: 0/0
  6747 ;; Data sizes:     COMMON   BANK0   BANK1   BANK3   BANK2
  6748 ;;      Params:         4       0       0       0       0
  6749 ;;      Locals:         1       0       0       0       0
  6750 ;;      Temps:          0       0       0       0       0
  6751 ;;      Totals:         5       0       0       0       0
  6752 ;;Total ram usage:        5 bytes
  6753 ;; Hardware stack levels used: 1
  6754 ;; Hardware stack levels required when called: 1
  6755 ;; This function calls:
  6756 ;;		Nothing
  6757 ;; This function is called by:
  6758 ;;		_log_event
  6759 ;; This function uses a non-reentrant model
  6760 ;;
  6761                           
  6762     1556                     _strncpy:	
  6763                           ;psect for function _strncpy
  6764                           
  6765     1556                     l2854:	
  6766                           ;incstack = 0
  6767                           ; Regs used in _strncpy: [wreg-fsr0h+status,2+status,0+btemp1]
  6768                           
  6769     1556  0872               	movf	strncpy@d,w
  6770     1557  00F6               	movwf	strncpy@cp
  6771     1558  2D70               	goto	l2862
  6772     1559                     l2856:
  6773     1559  3001               	movlw	1
  6774     155A  02F4               	subwf	strncpy@n,f
  6775     155B  3000               	movlw	0
  6776     155C  1C03               	skipc
  6777     155D  03F5               	decf	strncpy@n+1,f
  6778     155E  02F5               	subwf	strncpy@n+1,f
  6779     155F                     l2858:
  6780     155F  0873               	movf	strncpy@s,w
  6781     1560  0AF3               	incf	strncpy@s,f
  6782     1561  0084               	movwf	4
  6783     1562  1383               	bcf	3,7	;select IRP bank0
  6784     1563  0800               	movf	0,w
  6785     1564  00FF               	movwf	btemp1
  6786     1565  0876               	movf	strncpy@cp,w
  6787     1566  0AF6               	incf	strncpy@cp,f
  6788     1567  0084               	movwf	4
  6789     1568  087F               	movf	btemp1,w
  6790     1569  0080               	movwf	0
  6791     156A  0800               	movf	0,w
  6792     156B  1D03               	btfss	3,2
  6793     156C  2D6E               	goto	u2461
  6794     156D  2D6F               	goto	u2460
  6795     156E                     u2461:
  6796     156E  2D70               	goto	l2862
  6797     156F                     u2460:
  6798     156F  2D7D               	goto	l2868
  6799     1570                     l2862:
  6800     1570  0874               	movf	strncpy@n,w
  6801     1571  0475               	iorwf	strncpy@n+1,w
  6802     1572  1D03               	btfss	3,2
  6803     1573  2D75               	goto	u2471
  6804     1574  2D76               	goto	u2470
  6805     1575                     u2471:
  6806     1575  2D59               	goto	l2856
  6807     1576                     u2470:
  6808     1576  2D7D               	goto	l2868
  6809     1577                     l2864:
  6810     1577  0876               	movf	strncpy@cp,w
  6811     1578  0084               	movwf	4
  6812     1579  1383               	bcf	3,7	;select IRP bank0
  6813     157A  0180               	clrf	0
  6814     157B                     l2866:
  6815     157B  3001               	movlw	1
  6816     157C  07F6               	addwf	strncpy@cp,f
  6817     157D                     l2868:
  6818     157D  3001               	movlw	1
  6819     157E  02F4               	subwf	strncpy@n,f
  6820     157F  3000               	movlw	0
  6821     1580  1C03               	skipc
  6822     1581  03F5               	decf	strncpy@n+1,f
  6823     1582  02F5               	subwf	strncpy@n+1,f
  6824     1583  0A74               	incf	strncpy@n,w
  6825     1584  1D03               	skipz
  6826     1585  2D8A               	goto	u2481
  6827     1586  0A75               	incf	strncpy@n+1,w
  6828     1587  1D03               	btfss	3,2
  6829     1588  2D8A               	goto	u2481
  6830     1589  2D8B               	goto	u2480
  6831     158A                     u2481:
  6832     158A  2D77               	goto	l2864
  6833     158B                     u2480:
  6834     158B                     l1196:
  6835     158B  0008               	return
  6836     158C                     __end_of_strncpy:
  6837                           
  6838                           	psect	text12
  6839     1466                     __ptext12:	
  6840 ;; *************** function _log_car_event *****************
  6841 ;; Defined at:
  6842 ;;		line 72 in file "car_black_box_def.c"
  6843 ;; Parameters:    Size  Location     Type
  6844 ;;		None
  6845 ;; Auto vars:     Size  Location     Type
  6846 ;;  addr            1    0[BANK0 ] unsigned char 
  6847 ;; Return value:  Size  Location     Type
  6848 ;;                  1    wreg      void 
  6849 ;; Registers used:
  6850 ;;		wreg, fsr0l, fsr0h, status,2, status,0, pclath, btemp1, cstack
  6851 ;; Tracked objects:
  6852 ;;		On entry : 0/0
  6853 ;;		On exit  : 0/0
  6854 ;;		Unchanged: 0/0
  6855 ;; Data sizes:     COMMON   BANK0   BANK1   BANK3   BANK2
  6856 ;;      Params:         0       0       0       0       0
  6857 ;;      Locals:         0       1       0       0       0
  6858 ;;      Temps:          0       0       0       0       0
  6859 ;;      Totals:         0       1       0       0       0
  6860 ;;Total ram usage:        1 bytes
  6861 ;; Hardware stack levels used: 1
  6862 ;; Hardware stack levels required when called: 2
  6863 ;; This function calls:
  6864 ;;		___bmul
  6865 ;;		_str_write_ext_eeprom
  6866 ;; This function is called by:
  6867 ;;		_log_event
  6868 ;; This function uses a non-reentrant model
  6869 ;;
  6870                           
  6871     1466                     _log_car_event:	
  6872                           ;psect for function _log_car_event
  6873                           
  6874     1466                     l4104:	
  6875                           ;incstack = 0
  6876                           ; Regs used in _log_car_event: [wreg-fsr0h+status,2+status,0+pclath+btemp1+cstack]
  6877                           
  6878                           
  6879                           ;car_black_box_def.c: 74:     char addr = 0x05;
  6880     1466  3005               	movlw	5
  6881     1467  1283               	bcf	3,5	;RP0=0, select bank0
  6882     1468  1303               	bcf	3,6	;RP1=0, select bank0
  6883     1469  00A0               	movwf	log_car_event@addr
  6884     146A                     l4106:
  6885                           
  6886                           ;car_black_box_def.c: 75:     if (pos == 10)
  6887     146A  300A               	movlw	10
  6888     146B  067A               	xorwf	_pos,w
  6889     146C  1D03               	btfss	3,2
  6890     146D  2C6F               	goto	u4251
  6891     146E  2C70               	goto	u4250
  6892     146F                     u4251:
  6893     146F  2C71               	goto	l4110
  6894     1470                     u4250:
  6895     1470                     l4108:
  6896                           
  6897                           ;car_black_box_def.c: 76:     {;car_black_box_def.c: 77:         pos = 0;
  6898     1470  01FA               	clrf	_pos
  6899     1471                     l4110:
  6900                           
  6901                           ;car_black_box_def.c: 80:     addr = pos * 10 + addr;
  6902     1471  300A               	movlw	10
  6903     1472  00F2               	movwf	___bmul@multiplicand
  6904     1473  087A               	movf	_pos,w
  6905     1474  160A  118A  229B  160A  118A  	fcall	___bmul
  6906     1479  1283               	bcf	3,5	;RP0=0, select bank0
  6907     147A  1303               	bcf	3,6	;RP1=0, select bank0
  6908     147B  0720               	addwf	log_car_event@addr,w
  6909     147C  00A0               	movwf	log_car_event@addr
  6910     147D                     l4112:
  6911                           
  6912                           ;car_black_box_def.c: 81:     str_write_ext_eeprom(addr, log);
  6913     147D  30A7               	movlw	(low (_log| 0))& (0+255)
  6914     147E  00F7               	movwf	str_write_ext_eeprom@data
  6915     147F  3000               	movlw	0
  6916     1480  00F8               	movwf	str_write_ext_eeprom@data+1
  6917     1481  0820               	movf	log_car_event@addr,w
  6918     1482  160A  118A  23E5  160A  118A  	fcall	_str_write_ext_eeprom
  6919     1487                     l4114:
  6920                           
  6921                           ;car_black_box_def.c: 82:     pos++;
  6922     1487  3001               	movlw	1
  6923     1488  07FA               	addwf	_pos,f
  6924     1489                     l4116:
  6925                           
  6926                           ;car_black_box_def.c: 85:     if (log_count < 9)
  6927     1489  3009               	movlw	9
  6928     148A  1283               	bcf	3,5	;RP0=0, select bank0
  6929     148B  1303               	bcf	3,6	;RP1=0, select bank0
  6930     148C  026D               	subwf	_log_count,w
  6931     148D  1803               	skipnc
  6932     148E  2C90               	goto	u4261
  6933     148F  2C91               	goto	u4260
  6934     1490                     u4261:
  6935     1490  2C93               	goto	l376
  6936     1491                     u4260:
  6937     1491                     l4118:
  6938                           
  6939                           ;car_black_box_def.c: 86:         log_count++;
  6940     1491  3001               	movlw	1
  6941     1492  07ED               	addwf	_log_count,f
  6942     1493                     l376:
  6943     1493  0008               	return
  6944     1494                     __end_of_log_car_event:
  6945                           
  6946                           	psect	text13
  6947     158C                     __ptext13:	
  6948 ;; *************** function _init_config *****************
  6949 ;; Defined at:
  6950 ;;		line 16 in file "main.c"
  6951 ;; Parameters:    Size  Location     Type
  6952 ;;		None
  6953 ;; Auto vars:     Size  Location     Type
  6954 ;;		None
  6955 ;; Return value:  Size  Location     Type
  6956 ;;                  1    wreg      void 
  6957 ;; Registers used:
  6958 ;;		wreg, status,2, status,0, pclath, cstack
  6959 ;; Tracked objects:
  6960 ;;		On entry : 0/0
  6961 ;;		On exit  : 0/0
  6962 ;;		Unchanged: 0/0
  6963 ;; Data sizes:     COMMON   BANK0   BANK1   BANK3   BANK2
  6964 ;;      Params:         0       0       0       0       0
  6965 ;;      Locals:         0       0       0       0       0
  6966 ;;      Temps:          0       0       0       0       0
  6967 ;;      Totals:         0       0       0       0       0
  6968 ;;Total ram usage:        0 bytes
  6969 ;; Hardware stack levels used: 1
  6970 ;; Hardware stack levels required when called: 4
  6971 ;; This function calls:
  6972 ;;		_init_adc
  6973 ;;		_init_clcd
  6974 ;;		_init_digital_keypad
  6975 ;;		_init_ds1307
  6976 ;;		_init_i2c
  6977 ;;		_init_timer2
  6978 ;;		_init_uart
  6979 ;; This function is called by:
  6980 ;;		_main
  6981 ;; This function uses a non-reentrant model
  6982 ;;
  6983                           
  6984     158C                     _init_config:	
  6985                           ;psect for function _init_config
  6986                           
  6987     158C                     l4162:	
  6988                           ;incstack = 0
  6989                           ; Regs used in _init_config: [wreg+status,2+status,0+pclath+cstack]
  6990                           
  6991                           
  6992                           ;main.c: 18: 
  6993     158C  3000               	movlw	0
  6994     158D  1283               	bcf	3,5	;RP0=0, select bank0
  6995     158E  1303               	bcf	3,6	;RP1=0, select bank0
  6996     158F  00A9               	movwf	init_uart@baud+3
  6997     1590  3000               	movlw	0
  6998     1591  00A8               	movwf	init_uart@baud+2
  6999     1592  3025               	movlw	37
  7000     1593  00A7               	movwf	init_uart@baud+1
  7001     1594  3080               	movlw	128
  7002     1595  00A6               	movwf	init_uart@baud
  7003     1596  160A  118A  24F3  160A  118A  	fcall	_init_uart
  7004                           
  7005                           ;main.c: 20:     PEIE = 1;
  7006     159B  3000               	movlw	0
  7007     159C  1283               	bcf	3,5	;RP0=0, select bank0
  7008     159D  1303               	bcf	3,6	;RP1=0, select bank0
  7009     159E  00A9               	movwf	init_i2c@baud+3
  7010     159F  3001               	movlw	1
  7011     15A0  00A8               	movwf	init_i2c@baud+2
  7012     15A1  3086               	movlw	134
  7013     15A2  00A7               	movwf	init_i2c@baud+1
  7014     15A3  30A0               	movlw	160
  7015     15A4  00A6               	movwf	init_i2c@baud
  7016     15A5  160A  118A  2524  160A  118A  	fcall	_init_i2c
  7017                           
  7018                           ;main.c: 22: }
  7019     15AA  160A  118A  2277  160A  118A  	fcall	_init_ds1307
  7020                           
  7021                           ;main.c: 24: void main(void) {
  7022     15AF  160A  118A  2206  160A  118A  	fcall	_init_digital_keypad
  7023     15B4                     l4164:
  7024                           
  7025                           ;main.c: 26:     unsigned char operation_flag = 0x01, reset_flag = 0x00 ;
  7026     15B4  160A  118A  220C  160A  118A  	fcall	_init_adc
  7027     15B9                     l4166:
  7028                           
  7029                           ;main.c: 28:     char event[3] = "ON";
  7030     15B9  160A  118A  224E  160A  118A  	fcall	_init_clcd
  7031                           
  7032                           ;main.c: 30: 
  7033     15BE  120A  118A  27F3  160A  118A  	fcall	_init_timer2
  7034     15C3                     l4168:
  7035                           
  7036                           ;main.c: 33:     char *gear[] = {"GN", "GR", "G1", "G2", "G3", "G4"};
  7037     15C3  170B               	bsf	11,6	;volatile
  7038     15C4                     l4170:
  7039                           
  7040                           ;main.c: 34: 
  7041     15C4  178B               	bsf	11,7	;volatile
  7042     15C5                     l57:
  7043     15C5  0008               	return
  7044     15C6                     __end_of_init_config:
  7045                           
  7046                           	psect	text14
  7047     14F3                     __ptext14:	
  7048 ;; *************** function _init_uart *****************
  7049 ;; Defined at:
  7050 ;;		line 4 in file "uart.c"
  7051 ;; Parameters:    Size  Location     Type
  7052 ;;  baud            4    6[BANK0 ] unsigned long 
  7053 ;; Auto vars:     Size  Location     Type
  7054 ;;		None
  7055 ;; Return value:  Size  Location     Type
  7056 ;;                  1    wreg      void 
  7057 ;; Registers used:
  7058 ;;		wreg, status,2, status,0, pclath, cstack
  7059 ;; Tracked objects:
  7060 ;;		On entry : 0/0
  7061 ;;		On exit  : 0/0
  7062 ;;		Unchanged: 0/0
  7063 ;; Data sizes:     COMMON   BANK0   BANK1   BANK3   BANK2
  7064 ;;      Params:         0       4       0       0       0
  7065 ;;      Locals:         0       0       0       0       0
  7066 ;;      Temps:          0       4       0       0       0
  7067 ;;      Totals:         0       8       0       0       0
  7068 ;;Total ram usage:        8 bytes
  7069 ;; Hardware stack levels used: 1
  7070 ;; Hardware stack levels required when called: 2
  7071 ;; This function calls:
  7072 ;;		___lldiv
  7073 ;; This function is called by:
  7074 ;;		_init_config
  7075 ;; This function uses a non-reentrant model
  7076 ;;
  7077                           
  7078     14F3                     _init_uart:	
  7079                           ;psect for function _init_uart
  7080                           
  7081     14F3                     l4064:	
  7082                           ;incstack = 0
  7083                           ; Regs used in _init_uart: [wreg+status,2+status,0+pclath+cstack]
  7084                           
  7085                           
  7086                           ;uart.c: 4: void init_uart(unsigned long baud);uart.c: 5: {;uart.c: 7:     SPEN = 1;
  7087     14F3  1283               	bcf	3,5	;RP0=0, select bank0
  7088     14F4  1303               	bcf	3,6	;RP1=0, select bank0
  7089     14F5  1798               	bsf	24,7	;volatile
  7090                           
  7091                           ;uart.c: 10:     CREN = 1;
  7092     14F6  1618               	bsf	24,4	;volatile
  7093     14F7                     l4066:
  7094                           
  7095                           ;uart.c: 13:     SPBRG = (unsigned char)((20000000 / (16 * baud)) - 1);
  7096     14F7  0826               	movf	init_uart@baud,w
  7097     14F8  00AA               	movwf	??_init_uart
  7098     14F9  0827               	movf	init_uart@baud+1,w
  7099     14FA  00AB               	movwf	??_init_uart+1
  7100     14FB  0828               	movf	init_uart@baud+2,w
  7101     14FC  00AC               	movwf	??_init_uart+2
  7102     14FD  0829               	movf	init_uart@baud+3,w
  7103     14FE  00AD               	movwf	??_init_uart+3
  7104     14FF  3004               	movlw	4
  7105     1500                     u4225:
  7106     1500  1003               	clrc
  7107     1501  0DAA               	rlf	??_init_uart,f
  7108     1502  0DAB               	rlf	??_init_uart+1,f
  7109     1503  0DAC               	rlf	??_init_uart+2,f
  7110     1504  0DAD               	rlf	??_init_uart+3,f
  7111     1505                     u4220:
  7112     1505  3EFF               	addlw	-1
  7113     1506  1D03               	skipz
  7114     1507  2D00               	goto	u4225
  7115     1508  082D               	movf	??_init_uart+3,w
  7116     1509  00F5               	movwf	___lldiv@divisor+3
  7117     150A  082C               	movf	??_init_uart+2,w
  7118     150B  00F4               	movwf	___lldiv@divisor+2
  7119     150C  082B               	movf	??_init_uart+1,w
  7120     150D  00F3               	movwf	___lldiv@divisor+1
  7121     150E  082A               	movf	??_init_uart,w
  7122     150F  00F2               	movwf	___lldiv@divisor
  7123     1510  3001               	movlw	1
  7124     1511  00F9               	movwf	___lldiv@dividend+3
  7125     1512  3031               	movlw	49
  7126     1513  00F8               	movwf	___lldiv@dividend+2
  7127     1514  302D               	movlw	45
  7128     1515  00F7               	movwf	___lldiv@dividend+1
  7129     1516  3000               	movlw	0
  7130     1517  00F6               	movwf	___lldiv@dividend
  7131     1518  120A  158A  21BE  160A  118A  	fcall	___lldiv
  7132     151D  0872               	movf	?___lldiv,w
  7133     151E  3EFF               	addlw	255
  7134     151F  1683               	bsf	3,5	;RP0=1, select bank1
  7135     1520  1303               	bcf	3,6	;RP1=0, select bank1
  7136     1521  0099               	movwf	25	;volatile
  7137     1522                     l4068:
  7138                           
  7139                           ;uart.c: 16:     RCIE = 1;
  7140     1522  168C               	bsf	12,5	;volatile
  7141     1523                     l611:
  7142     1523  0008               	return
  7143     1524                     __end_of_init_uart:
  7144                           
  7145                           	psect	text15
  7146     07F3                     __ptext15:	
  7147 ;; *************** function _init_timer2 *****************
  7148 ;; Defined at:
  7149 ;;		line 3 in file "timers.c"
  7150 ;; Parameters:    Size  Location     Type
  7151 ;;		None
  7152 ;; Auto vars:     Size  Location     Type
  7153 ;;		None
  7154 ;; Return value:  Size  Location     Type
  7155 ;;                  1    wreg      void 
  7156 ;; Registers used:
  7157 ;;		None
  7158 ;; Tracked objects:
  7159 ;;		On entry : 0/0
  7160 ;;		On exit  : 0/0
  7161 ;;		Unchanged: 0/0
  7162 ;; Data sizes:     COMMON   BANK0   BANK1   BANK3   BANK2
  7163 ;;      Params:         0       0       0       0       0
  7164 ;;      Locals:         0       0       0       0       0
  7165 ;;      Temps:          0       0       0       0       0
  7166 ;;      Totals:         0       0       0       0       0
  7167 ;;Total ram usage:        0 bytes
  7168 ;; Hardware stack levels used: 1
  7169 ;; Hardware stack levels required when called: 1
  7170 ;; This function calls:
  7171 ;;		Nothing
  7172 ;; This function is called by:
  7173 ;;		_init_config
  7174 ;; This function uses a non-reentrant model
  7175 ;;
  7176                           
  7177     07F3                     _init_timer2:	
  7178                           ;psect for function _init_timer2
  7179                           
  7180     07F3                     l2822:	
  7181                           ;incstack = 0
  7182                           ; Regs used in _init_timer2: []
  7183                           
  7184                           
  7185                           ;timers.c: 6:     T2CKPS0 = 1;
  7186     07F3  1283               	bcf	3,5	;RP0=0, select bank0
  7187     07F4  1303               	bcf	3,6	;RP1=0, select bank0
  7188     07F5  1412               	bsf	18,0	;volatile
  7189                           
  7190                           ;timers.c: 7:     T2CKPS1 = 1;
  7191     07F6  1492               	bsf	18,1	;volatile
  7192                           
  7193                           ;timers.c: 10:     PR2 = 250;
  7194     07F7  30FA               	movlw	250
  7195     07F8  1683               	bsf	3,5	;RP0=1, select bank1
  7196     07F9  1303               	bcf	3,6	;RP1=0, select bank1
  7197     07FA  0092               	movwf	18	;volatile
  7198                           
  7199                           ;timers.c: 13:     TMR2IE = 1;
  7200     07FB  148C               	bsf	12,1	;volatile
  7201                           
  7202                           ;timers.c: 16:     TMR2ON = 0;
  7203     07FC  1283               	bcf	3,5	;RP0=0, select bank0
  7204     07FD  1303               	bcf	3,6	;RP1=0, select bank0
  7205     07FE  1112               	bcf	18,2	;volatile
  7206     07FF                     l592:
  7207     07FF  0008               	return
  7208     0800                     __end_of_init_timer2:
  7209                           
  7210                           	psect	text16
  7211     1524                     __ptext16:	
  7212 ;; *************** function _init_i2c *****************
  7213 ;; Defined at:
  7214 ;;		line 4 in file "i2c.c"
  7215 ;; Parameters:    Size  Location     Type
  7216 ;;  baud            4    6[BANK0 ] unsigned long 
  7217 ;; Auto vars:     Size  Location     Type
  7218 ;;		None
  7219 ;; Return value:  Size  Location     Type
  7220 ;;                  1    wreg      void 
  7221 ;; Registers used:
  7222 ;;		wreg, status,2, status,0, pclath, cstack
  7223 ;; Tracked objects:
  7224 ;;		On entry : 0/0
  7225 ;;		On exit  : 0/0
  7226 ;;		Unchanged: 0/0
  7227 ;; Data sizes:     COMMON   BANK0   BANK1   BANK3   BANK2
  7228 ;;      Params:         0       4       0       0       0
  7229 ;;      Locals:         0       0       0       0       0
  7230 ;;      Temps:          0       4       0       0       0
  7231 ;;      Totals:         0       8       0       0       0
  7232 ;;Total ram usage:        8 bytes
  7233 ;; Hardware stack levels used: 1
  7234 ;; Hardware stack levels required when called: 2
  7235 ;; This function calls:
  7236 ;;		___lldiv
  7237 ;; This function is called by:
  7238 ;;		_init_config
  7239 ;; This function uses a non-reentrant model
  7240 ;;
  7241                           
  7242     1524                     _init_i2c:	
  7243                           ;psect for function _init_i2c
  7244                           
  7245     1524                     l4070:	
  7246                           ;incstack = 0
  7247                           ; Regs used in _init_i2c: [wreg+status,2+status,0+pclath+cstack]
  7248                           
  7249                           
  7250                           ;i2c.c: 4: void init_i2c(unsigned long baud);i2c.c: 5: {;i2c.c: 7:     SSPM3 = 1;
  7251     1524  1283               	bcf	3,5	;RP0=0, select bank0
  7252     1525  1303               	bcf	3,6	;RP1=0, select bank0
  7253     1526  1594               	bsf	20,3	;volatile
  7254     1527                     l4072:
  7255                           
  7256                           ;i2c.c: 10:     SSPADD = (unsigned char)(20000000 / (4 * baud)) - 1;
  7257     1527  0826               	movf	init_i2c@baud,w
  7258     1528  00AA               	movwf	??_init_i2c
  7259     1529  0827               	movf	init_i2c@baud+1,w
  7260     152A  00AB               	movwf	??_init_i2c+1
  7261     152B  0828               	movf	init_i2c@baud+2,w
  7262     152C  00AC               	movwf	??_init_i2c+2
  7263     152D  0829               	movf	init_i2c@baud+3,w
  7264     152E  00AD               	movwf	??_init_i2c+3
  7265     152F  3002               	movlw	2
  7266     1530                     u4235:
  7267     1530  1003               	clrc
  7268     1531  0DAA               	rlf	??_init_i2c,f
  7269     1532  0DAB               	rlf	??_init_i2c+1,f
  7270     1533  0DAC               	rlf	??_init_i2c+2,f
  7271     1534  0DAD               	rlf	??_init_i2c+3,f
  7272     1535                     u4230:
  7273     1535  3EFF               	addlw	-1
  7274     1536  1D03               	skipz
  7275     1537  2D30               	goto	u4235
  7276     1538  082D               	movf	??_init_i2c+3,w
  7277     1539  00F5               	movwf	___lldiv@divisor+3
  7278     153A  082C               	movf	??_init_i2c+2,w
  7279     153B  00F4               	movwf	___lldiv@divisor+2
  7280     153C  082B               	movf	??_init_i2c+1,w
  7281     153D  00F3               	movwf	___lldiv@divisor+1
  7282     153E  082A               	movf	??_init_i2c,w
  7283     153F  00F2               	movwf	___lldiv@divisor
  7284     1540  3001               	movlw	1
  7285     1541  00F9               	movwf	___lldiv@dividend+3
  7286     1542  3031               	movlw	49
  7287     1543  00F8               	movwf	___lldiv@dividend+2
  7288     1544  302D               	movlw	45
  7289     1545  00F7               	movwf	___lldiv@dividend+1
  7290     1546  3000               	movlw	0
  7291     1547  00F6               	movwf	___lldiv@dividend
  7292     1548  120A  158A  21BE  160A  118A  	fcall	___lldiv
  7293     154D  0872               	movf	?___lldiv,w
  7294     154E  3EFF               	addlw	255
  7295     154F  1683               	bsf	3,5	;RP0=1, select bank1
  7296     1550  1303               	bcf	3,6	;RP1=0, select bank1
  7297     1551  0093               	movwf	19	;volatile
  7298     1552                     l4074:
  7299                           
  7300                           ;i2c.c: 13:     SSPEN = 1;
  7301     1552  1283               	bcf	3,5	;RP0=0, select bank0
  7302     1553  1303               	bcf	3,6	;RP1=0, select bank0
  7303     1554  1694               	bsf	20,5	;volatile
  7304     1555                     l264:
  7305     1555  0008               	return
  7306     1556                     __end_of_init_i2c:
  7307                           
  7308                           	psect	text17
  7309     09BE                     __ptext17:	
  7310 ;; *************** function ___lldiv *****************
  7311 ;; Defined at:
  7312 ;;		line 5 in file "C:\Program Files\Microchip\xc8\v3.10\pic\sources\c99\common\__lldiv.c"
  7313 ;; Parameters:    Size  Location     Type
  7314 ;;  divisor         4    2[COMMON] unsigned long 
  7315 ;;  dividend        4    6[COMMON] unsigned long 
  7316 ;; Auto vars:     Size  Location     Type
  7317 ;;  quotient        4    1[BANK0 ] unsigned long 
  7318 ;;  counter         1    5[BANK0 ] unsigned char 
  7319 ;; Return value:  Size  Location     Type
  7320 ;;                  4    2[COMMON] unsigned long 
  7321 ;; Registers used:
  7322 ;;		wreg, status,2, status,0
  7323 ;; Tracked objects:
  7324 ;;		On entry : 0/0
  7325 ;;		On exit  : 0/0
  7326 ;;		Unchanged: 0/0
  7327 ;; Data sizes:     COMMON   BANK0   BANK1   BANK3   BANK2
  7328 ;;      Params:         8       0       0       0       0
  7329 ;;      Locals:         0       5       0       0       0
  7330 ;;      Temps:          0       1       0       0       0
  7331 ;;      Totals:         8       6       0       0       0
  7332 ;;Total ram usage:       14 bytes
  7333 ;; Hardware stack levels used: 1
  7334 ;; Hardware stack levels required when called: 1
  7335 ;; This function calls:
  7336 ;;		Nothing
  7337 ;; This function is called by:
  7338 ;;		_init_i2c
  7339 ;;		_init_uart
  7340 ;; This function uses a non-reentrant model
  7341 ;;
  7342                           
  7343     09BE                     ___lldiv:	
  7344                           ;psect for function ___lldiv
  7345                           
  7346     09BE                     l4040:	
  7347                           ;incstack = 0
  7348                           ; Regs used in ___lldiv: [wreg+status,2+status,0]
  7349                           
  7350     09BE  3000               	movlw	0
  7351     09BF  1283               	bcf	3,5	;RP0=0, select bank0
  7352     09C0  1303               	bcf	3,6	;RP1=0, select bank0
  7353     09C1  00A4               	movwf	___lldiv@quotient+3
  7354     09C2  3000               	movlw	0
  7355     09C3  00A3               	movwf	___lldiv@quotient+2
  7356     09C4  3000               	movlw	0
  7357     09C5  00A2               	movwf	___lldiv@quotient+1
  7358     09C6  3000               	movlw	0
  7359     09C7  00A1               	movwf	___lldiv@quotient
  7360     09C8  0875               	movf	___lldiv@divisor+3,w
  7361     09C9  0474               	iorwf	___lldiv@divisor+2,w
  7362     09CA  0473               	iorwf	___lldiv@divisor+1,w
  7363     09CB  0472               	iorwf	___lldiv@divisor,w
  7364     09CC  1903               	skipnz
  7365     09CD  29CF               	goto	u4151
  7366     09CE  29D0               	goto	u4150
  7367     09CF                     u4151:
  7368     09CF  2A1B               	goto	l4060
  7369     09D0                     u4150:
  7370     09D0                     l4042:
  7371     09D0  3001               	movlw	1
  7372     09D1  00A5               	movwf	___lldiv@counter
  7373     09D2  29DE               	goto	l4046
  7374     09D3                     l4044:
  7375     09D3  3001               	movlw	1
  7376     09D4  00A0               	movwf	??___lldiv
  7377     09D5                     u4165:
  7378     09D5  1003               	clrc
  7379     09D6  0DF2               	rlf	___lldiv@divisor,f
  7380     09D7  0DF3               	rlf	___lldiv@divisor+1,f
  7381     09D8  0DF4               	rlf	___lldiv@divisor+2,f
  7382     09D9  0DF5               	rlf	___lldiv@divisor+3,f
  7383     09DA  0BA0               	decfsz	??___lldiv,f
  7384     09DB  29D5               	goto	u4165
  7385     09DC  3001               	movlw	1
  7386     09DD  07A5               	addwf	___lldiv@counter,f
  7387     09DE                     l4046:
  7388     09DE  1FF5               	btfss	___lldiv@divisor+3,7
  7389     09DF  29E1               	goto	u4171
  7390     09E0  29E2               	goto	u4170
  7391     09E1                     u4171:
  7392     09E1  29D3               	goto	l4044
  7393     09E2                     u4170:
  7394     09E2                     l4048:
  7395     09E2  3001               	movlw	1
  7396     09E3  00A0               	movwf	??___lldiv
  7397     09E4                     u4185:
  7398     09E4  1003               	clrc
  7399     09E5  0DA1               	rlf	___lldiv@quotient,f
  7400     09E6  0DA2               	rlf	___lldiv@quotient+1,f
  7401     09E7  0DA3               	rlf	___lldiv@quotient+2,f
  7402     09E8  0DA4               	rlf	___lldiv@quotient+3,f
  7403     09E9  0BA0               	decfsz	??___lldiv,f
  7404     09EA  29E4               	goto	u4185
  7405     09EB                     l4050:
  7406     09EB  0875               	movf	___lldiv@divisor+3,w
  7407     09EC  0279               	subwf	___lldiv@dividend+3,w
  7408     09ED  1D03               	skipz
  7409     09EE  29F9               	goto	u4195
  7410     09EF  0874               	movf	___lldiv@divisor+2,w
  7411     09F0  0278               	subwf	___lldiv@dividend+2,w
  7412     09F1  1D03               	skipz
  7413     09F2  29F9               	goto	u4195
  7414     09F3  0873               	movf	___lldiv@divisor+1,w
  7415     09F4  0277               	subwf	___lldiv@dividend+1,w
  7416     09F5  1D03               	skipz
  7417     09F6  29F9               	goto	u4195
  7418     09F7  0872               	movf	___lldiv@divisor,w
  7419     09F8  0276               	subwf	___lldiv@dividend,w
  7420     09F9                     u4195:
  7421     09F9  1C03               	skipc
  7422     09FA  29FC               	goto	u4191
  7423     09FB  29FD               	goto	u4190
  7424     09FC                     u4191:
  7425     09FC  2A0C               	goto	l4056
  7426     09FD                     u4190:
  7427     09FD                     l4052:
  7428     09FD  0872               	movf	___lldiv@divisor,w
  7429     09FE  02F6               	subwf	___lldiv@dividend,f
  7430     09FF  0873               	movf	___lldiv@divisor+1,w
  7431     0A00  1C03               	skipc
  7432     0A01  0F73               	incfsz	___lldiv@divisor+1,w
  7433     0A02  02F7               	subwf	___lldiv@dividend+1,f
  7434     0A03  0874               	movf	___lldiv@divisor+2,w
  7435     0A04  1C03               	skipc
  7436     0A05  0F74               	incfsz	___lldiv@divisor+2,w
  7437     0A06  02F8               	subwf	___lldiv@dividend+2,f
  7438     0A07  0875               	movf	___lldiv@divisor+3,w
  7439     0A08  1C03               	skipc
  7440     0A09  0F75               	incfsz	___lldiv@divisor+3,w
  7441     0A0A  02F9               	subwf	___lldiv@dividend+3,f
  7442     0A0B                     l4054:
  7443     0A0B  1421               	bsf	___lldiv@quotient,0
  7444     0A0C                     l4056:
  7445     0A0C  3001               	movlw	1
  7446     0A0D                     u4205:
  7447     0A0D  1003               	clrc
  7448     0A0E  0CF5               	rrf	___lldiv@divisor+3,f
  7449     0A0F  0CF4               	rrf	___lldiv@divisor+2,f
  7450     0A10  0CF3               	rrf	___lldiv@divisor+1,f
  7451     0A11  0CF2               	rrf	___lldiv@divisor,f
  7452     0A12  3EFF               	addlw	-1
  7453     0A13  1D03               	skipz
  7454     0A14  2A0D               	goto	u4205
  7455     0A15                     l4058:
  7456     0A15  3001               	movlw	1
  7457     0A16  02A5               	subwf	___lldiv@counter,f
  7458     0A17  1D03               	btfss	3,2
  7459     0A18  2A1A               	goto	u4211
  7460     0A19  2A1B               	goto	u4210
  7461     0A1A                     u4211:
  7462     0A1A  29E2               	goto	l4048
  7463     0A1B                     u4210:
  7464     0A1B                     l4060:
  7465     0A1B  0824               	movf	___lldiv@quotient+3,w
  7466     0A1C  00F5               	movwf	?___lldiv+3
  7467     0A1D  0823               	movf	___lldiv@quotient+2,w
  7468     0A1E  00F4               	movwf	?___lldiv+2
  7469     0A1F  0822               	movf	___lldiv@quotient+1,w
  7470     0A20  00F3               	movwf	?___lldiv+1
  7471     0A21  0821               	movf	___lldiv@quotient,w
  7472     0A22  00F2               	movwf	?___lldiv
  7473     0A23                     l751:
  7474     0A23  0008               	return
  7475     0A24                     __end_of___lldiv:
  7476                           
  7477                           	psect	text18
  7478     1277                     __ptext18:	
  7479 ;; *************** function _init_ds1307 *****************
  7480 ;; Defined at:
  7481 ;;		line 5 in file "ds1307.c"
  7482 ;; Parameters:    Size  Location     Type
  7483 ;;		None
  7484 ;; Auto vars:     Size  Location     Type
  7485 ;;  dummy           1    6[COMMON] unsigned char 
  7486 ;; Return value:  Size  Location     Type
  7487 ;;                  1    wreg      void 
  7488 ;; Registers used:
  7489 ;;		wreg, status,2, status,0, pclath, cstack
  7490 ;; Tracked objects:
  7491 ;;		On entry : 0/0
  7492 ;;		On exit  : 0/0
  7493 ;;		Unchanged: 0/0
  7494 ;; Data sizes:     COMMON   BANK0   BANK1   BANK3   BANK2
  7495 ;;      Params:         0       0       0       0       0
  7496 ;;      Locals:         1       0       0       0       0
  7497 ;;      Temps:          0       0       0       0       0
  7498 ;;      Totals:         1       0       0       0       0
  7499 ;;Total ram usage:        1 bytes
  7500 ;; Hardware stack levels used: 1
  7501 ;; Hardware stack levels required when called: 3
  7502 ;; This function calls:
  7503 ;;		_read_ds1307
  7504 ;;		_write_ds1307
  7505 ;; This function is called by:
  7506 ;;		_init_config
  7507 ;; This function uses a non-reentrant model
  7508 ;;
  7509                           
  7510     1277                     _init_ds1307:	
  7511                           ;psect for function _init_ds1307
  7512                           
  7513     1277                     l4076:	
  7514                           ;incstack = 0
  7515                           ; Regs used in _init_ds1307: [wreg+status,2+status,0+pclath+cstack]
  7516                           
  7517                           
  7518                           ;ds1307.c: 7:     unsigned char dummy;;ds1307.c: 9:     dummy = read_ds1307(0x00);
  7519     1277  3000               	movlw	0
  7520     1278  160A  118A  2410  160A  118A  	fcall	_read_ds1307
  7521     127D  00F6               	movwf	init_ds1307@dummy
  7522     127E                     l4078:
  7523                           
  7524                           ;ds1307.c: 10:     dummy = dummy & 0x7F;
  7525     127E  307F               	movlw	127
  7526     127F  05F6               	andwf	init_ds1307@dummy,f
  7527     1280                     l4080:
  7528                           
  7529                           ;ds1307.c: 11:     write_ds1307(0x00, dummy);
  7530     1280  0876               	movf	init_ds1307@dummy,w
  7531     1281  00F3               	movwf	write_ds1307@data
  7532     1282  3000               	movlw	0
  7533     1283  160A  118A  22EF  160A  118A  	fcall	_write_ds1307
  7534     1288                     l229:
  7535     1288  0008               	return
  7536     1289                     __end_of_init_ds1307:
  7537                           
  7538                           	psect	text19
  7539     12EF                     __ptext19:	
  7540 ;; *************** function _write_ds1307 *****************
  7541 ;; Defined at:
  7542 ;;		line 29 in file "ds1307.c"
  7543 ;; Parameters:    Size  Location     Type
  7544 ;;  addr            1    wreg     unsigned char 
  7545 ;;  data            1    3[COMMON] unsigned char 
  7546 ;; Auto vars:     Size  Location     Type
  7547 ;;  addr            1    4[COMMON] unsigned char 
  7548 ;; Return value:  Size  Location     Type
  7549 ;;                  1    wreg      void 
  7550 ;; Registers used:
  7551 ;;		wreg, status,2, status,0, pclath, cstack
  7552 ;; Tracked objects:
  7553 ;;		On entry : 0/0
  7554 ;;		On exit  : 0/0
  7555 ;;		Unchanged: 0/0
  7556 ;; Data sizes:     COMMON   BANK0   BANK1   BANK3   BANK2
  7557 ;;      Params:         1       0       0       0       0
  7558 ;;      Locals:         1       0       0       0       0
  7559 ;;      Temps:          0       0       0       0       0
  7560 ;;      Totals:         2       0       0       0       0
  7561 ;;Total ram usage:        2 bytes
  7562 ;; Hardware stack levels used: 1
  7563 ;; Hardware stack levels required when called: 1
  7564 ;; This function calls:
  7565 ;;		_i2c_start
  7566 ;;		_i2c_stop
  7567 ;;		_i2c_write
  7568 ;; This function is called by:
  7569 ;;		_init_ds1307
  7570 ;;		_save_time
  7571 ;; This function uses a non-reentrant model
  7572 ;;
  7573                           
  7574     12EF                     _write_ds1307:	
  7575                           ;psect for function _write_ds1307
  7576                           
  7577                           
  7578                           ;incstack = 0
  7579                           ; Regs used in _write_ds1307: [wreg+status,2+status,0+pclath+cstack]
  7580                           ;write_ds1307@addr stored from wreg
  7581     12EF  00F4               	movwf	write_ds1307@addr
  7582     12F0                     l4000:
  7583                           
  7584                           ;ds1307.c: 29: void write_ds1307(unsigned char addr, unsigned char data);ds1307.c: 30: {
      +                          ;ds1307.c: 31:     i2c_start();
  7585     12F0  160A  118A  221B  160A  118A  	fcall	_i2c_start
  7586                           
  7587                           ;ds1307.c: 32:     i2c_write(0b11010000);
  7588     12F5  30D0               	movlw	208
  7589     12F6  160A  118A  222D  160A  118A  	fcall	_i2c_write
  7590                           
  7591                           ;ds1307.c: 33:     i2c_write(addr);
  7592     12FB  0874               	movf	write_ds1307@addr,w
  7593     12FC  160A  118A  222D  160A  118A  	fcall	_i2c_write
  7594                           
  7595                           ;ds1307.c: 34:     i2c_write(data);
  7596     1301  0873               	movf	write_ds1307@data,w
  7597     1302  160A  118A  222D  160A  118A  	fcall	_i2c_write
  7598                           
  7599                           ;ds1307.c: 35:     i2c_stop();
  7600     1307  160A  118A  2224  160A  118A  	fcall	_i2c_stop
  7601     130C                     l235:
  7602     130C  0008               	return
  7603     130D                     __end_of_write_ds1307:
  7604                           
  7605                           	psect	text20
  7606     1206                     __ptext20:	
  7607 ;; *************** function _init_digital_keypad *****************
  7608 ;; Defined at:
  7609 ;;		line 4 in file "digital_keypad.c"
  7610 ;; Parameters:    Size  Location     Type
  7611 ;;		None
  7612 ;; Auto vars:     Size  Location     Type
  7613 ;;		None
  7614 ;; Return value:  Size  Location     Type
  7615 ;;                  1    wreg      void 
  7616 ;; Registers used:
  7617 ;;		wreg, status,2
  7618 ;; Tracked objects:
  7619 ;;		On entry : 0/0
  7620 ;;		On exit  : 0/0
  7621 ;;		Unchanged: 0/0
  7622 ;; Data sizes:     COMMON   BANK0   BANK1   BANK3   BANK2
  7623 ;;      Params:         0       0       0       0       0
  7624 ;;      Locals:         0       0       0       0       0
  7625 ;;      Temps:          0       0       0       0       0
  7626 ;;      Totals:         0       0       0       0       0
  7627 ;;Total ram usage:        0 bytes
  7628 ;; Hardware stack levels used: 1
  7629 ;; Hardware stack levels required when called: 1
  7630 ;; This function calls:
  7631 ;;		Nothing
  7632 ;; This function is called by:
  7633 ;;		_init_config
  7634 ;; This function uses a non-reentrant model
  7635 ;;
  7636                           
  7637     1206                     _init_digital_keypad:	
  7638                           ;psect for function _init_digital_keypad
  7639                           
  7640     1206                     l2810:	
  7641                           ;incstack = 0
  7642                           ; Regs used in _init_digital_keypad: [wreg+status,2]
  7643                           
  7644                           
  7645                           ;digital_keypad.c: 7:     TRISB = TRISB | 0x3F;
  7646     1206  1683               	bsf	3,5	;RP0=1, select bank1
  7647     1207  1303               	bcf	3,6	;RP1=0, select bank1
  7648     1208  0806               	movf	6,w	;volatile
  7649     1209  383F               	iorlw	63
  7650     120A  0086               	movwf	6	;volatile
  7651     120B                     l202:
  7652     120B  0008               	return
  7653     120C                     __end_of_init_digital_keypad:
  7654                           
  7655                           	psect	text21
  7656     124E                     __ptext21:	
  7657 ;; *************** function _init_clcd *****************
  7658 ;; Defined at:
  7659 ;;		line 37 in file "clcd.c"
  7660 ;; Parameters:    Size  Location     Type
  7661 ;;		None
  7662 ;; Auto vars:     Size  Location     Type
  7663 ;;		None
  7664 ;; Return value:  Size  Location     Type
  7665 ;;                  1    wreg      void 
  7666 ;; Registers used:
  7667 ;;		wreg, status,2, status,0, pclath, cstack
  7668 ;; Tracked objects:
  7669 ;;		On entry : 0/0
  7670 ;;		On exit  : 0/0
  7671 ;;		Unchanged: 0/0
  7672 ;; Data sizes:     COMMON   BANK0   BANK1   BANK3   BANK2
  7673 ;;      Params:         0       0       0       0       0
  7674 ;;      Locals:         0       0       0       0       0
  7675 ;;      Temps:          0       0       0       0       0
  7676 ;;      Totals:         0       0       0       0       0
  7677 ;;Total ram usage:        0 bytes
  7678 ;; Hardware stack levels used: 1
  7679 ;; Hardware stack levels required when called: 3
  7680 ;; This function calls:
  7681 ;;		_init_display_controller
  7682 ;; This function is called by:
  7683 ;;		_init_config
  7684 ;; This function uses a non-reentrant model
  7685 ;;
  7686                           
  7687     124E                     _init_clcd:	
  7688                           ;psect for function _init_clcd
  7689                           
  7690     124E                     l4082:	
  7691                           ;incstack = 0
  7692                           ; Regs used in _init_clcd: [wreg+status,2+status,0+pclath+cstack]
  7693                           
  7694                           
  7695                           ;clcd.c: 40:     TRISD = 0x00;
  7696     124E  1683               	bsf	3,5	;RP0=1, select bank1
  7697     124F  1303               	bcf	3,6	;RP1=0, select bank1
  7698     1250  0188               	clrf	8	;volatile
  7699     1251                     l4084:
  7700                           
  7701                           ;clcd.c: 43:     TRISE2 = 0;
  7702     1251  1109               	bcf	9,2	;volatile
  7703     1252                     l4086:
  7704                           
  7705                           ;clcd.c: 44:     TRISE1 = 0;
  7706     1252  1089               	bcf	9,1	;volatile
  7707     1253                     l4088:
  7708                           
  7709                           ;clcd.c: 46:     init_display_controller();
  7710     1253  160A  118A  274F  160A  118A  	fcall	_init_display_controller
  7711     1258                     l186:
  7712     1258  0008               	return
  7713     1259                     __end_of_init_clcd:
  7714                           
  7715                           	psect	text22
  7716     174F                     __ptext22:	
  7717 ;; *************** function _init_display_controller *****************
  7718 ;; Defined at:
  7719 ;;		line 16 in file "clcd.c"
  7720 ;; Parameters:    Size  Location     Type
  7721 ;;		None
  7722 ;; Auto vars:     Size  Location     Type
  7723 ;;		None
  7724 ;; Return value:  Size  Location     Type
  7725 ;;                  1    wreg      void 
  7726 ;; Registers used:
  7727 ;;		wreg, status,2, status,0, pclath, cstack
  7728 ;; Tracked objects:
  7729 ;;		On entry : 0/0
  7730 ;;		On exit  : 0/0
  7731 ;;		Unchanged: 0/0
  7732 ;; Data sizes:     COMMON   BANK0   BANK1   BANK3   BANK2
  7733 ;;      Params:         0       0       0       0       0
  7734 ;;      Locals:         0       0       0       0       0
  7735 ;;      Temps:          2       0       0       0       0
  7736 ;;      Totals:         2       0       0       0       0
  7737 ;;Total ram usage:        2 bytes
  7738 ;; Hardware stack levels used: 1
  7739 ;; Hardware stack levels required when called: 2
  7740 ;; This function calls:
  7741 ;;		_clcd_write
  7742 ;; This function is called by:
  7743 ;;		_init_clcd
  7744 ;; This function uses a non-reentrant model
  7745 ;;
  7746                           
  7747     174F                     _init_display_controller:	
  7748                           ;psect for function _init_display_controller
  7749                           
  7750     174F                     l3978:	
  7751                           ;incstack = 0
  7752                           ; Regs used in _init_display_controller: [wreg+status,2+status,0+pclath+cstack]
  7753                           
  7754                           
  7755                           ;clcd.c: 19:     _delay((unsigned long)((30)*(20000000/4000.0)));
  7756     174F  30C3               	movlw	195
  7757     1750  00F7               	movwf	??_init_display_controller+1
  7758     1751  30CD               	movlw	205
  7759     1752  00F6               	movwf	??_init_display_controller
  7760     1753                     u5607:
  7761     1753  0BF6               	decfsz	??_init_display_controller,f
  7762     1754  2F53               	goto	u5607
  7763     1755  0BF7               	decfsz	??_init_display_controller+1,f
  7764     1756  2F53               	goto	u5607
  7765     1757                     l3980:
  7766                           
  7767                           ;clcd.c: 22:     clcd_write(0x33, 0);
  7768     1757  01F2               	clrf	clcd_write@mode
  7769     1758  3033               	movlw	51
  7770     1759  160A  118A  230D  160A  118A  	fcall	_clcd_write
  7771     175E                     l3982:
  7772                           
  7773                           ;clcd.c: 23:     _delay((unsigned long)((4100)*(20000000/4000000.0)));
  7774     175E  301B               	movlw	27
  7775     175F  00F7               	movwf	??_init_display_controller+1
  7776     1760  309E               	movlw	158
  7777     1761  00F6               	movwf	??_init_display_controller
  7778     1762                     u5617:
  7779     1762  0BF6               	decfsz	??_init_display_controller,f
  7780     1763  2F62               	goto	u5617
  7781     1764  0BF7               	decfsz	??_init_display_controller+1,f
  7782     1765  2F62               	goto	u5617
  7783     1766  0000               	nop
  7784                           
  7785                           ;clcd.c: 24:     clcd_write(0x33, 0);
  7786     1767  01F2               	clrf	clcd_write@mode
  7787     1768  3033               	movlw	51
  7788     1769  160A  118A  230D  160A  118A  	fcall	_clcd_write
  7789     176E                     l3984:
  7790                           
  7791                           ;clcd.c: 25:     _delay((unsigned long)((100)*(20000000/4000000.0)));
  7792     176E  30A6               	movlw	166
  7793     176F  00F6               	movwf	??_init_display_controller
  7794     1770                     u5627:
  7795     1770  0BF6               	decfsz	??_init_display_controller,f
  7796     1771  2F70               	goto	u5627
  7797     1772  0000               	nop
  7798     1773                     l3986:
  7799                           
  7800                           ;clcd.c: 26:     clcd_write(0x33, 0);
  7801     1773  01F2               	clrf	clcd_write@mode
  7802     1774  3033               	movlw	51
  7803     1775  160A  118A  230D  160A  118A  	fcall	_clcd_write
  7804     177A                     l3988:
  7805                           
  7806                           ;clcd.c: 27:     _delay((unsigned long)((1)*(20000000/4000000.0)));
  7807     177A  2F7B               	nop2	;2 cycle nop
  7808     177B  2F7C               	nop2	;2 cycle nop
  7809     177C  0000               	nop
  7810     177D                     l3990:
  7811                           
  7812                           ;clcd.c: 29:     clcd_write(0x38, 0);
  7813     177D  01F2               	clrf	clcd_write@mode
  7814     177E  3038               	movlw	56
  7815     177F  160A  118A  230D  160A  118A  	fcall	_clcd_write
  7816     1784                     l3992:
  7817                           
  7818                           ;clcd.c: 30:     _delay((unsigned long)((100)*(20000000/4000000.0)));
  7819     1784  30A6               	movlw	166
  7820     1785  00F6               	movwf	??_init_display_controller
  7821     1786                     u5637:
  7822     1786  0BF6               	decfsz	??_init_display_controller,f
  7823     1787  2F86               	goto	u5637
  7824     1788  0000               	nop
  7825                           
  7826                           ;clcd.c: 31:     clcd_write(0x01, 0);
  7827     1789  01F2               	clrf	clcd_write@mode
  7828     178A  3001               	movlw	1
  7829     178B  160A  118A  230D  160A  118A  	fcall	_clcd_write
  7830     1790                     l3994:
  7831                           
  7832                           ;clcd.c: 32:     _delay((unsigned long)((500)*(20000000/4000000.0)));
  7833     1790  3004               	movlw	4
  7834     1791  00F7               	movwf	??_init_display_controller+1
  7835     1792  303D               	movlw	61
  7836     1793  00F6               	movwf	??_init_display_controller
  7837     1794                     u5647:
  7838     1794  0BF6               	decfsz	??_init_display_controller,f
  7839     1795  2F94               	goto	u5647
  7840     1796  0BF7               	decfsz	??_init_display_controller+1,f
  7841     1797  2F94               	goto	u5647
  7842     1798  2F99               	nop2
  7843     1799                     l3996:
  7844                           
  7845                           ;clcd.c: 33:     clcd_write(0x0C, 0);
  7846     1799  01F2               	clrf	clcd_write@mode
  7847     179A  300C               	movlw	12
  7848     179B  160A  118A  230D  160A  118A  	fcall	_clcd_write
  7849                           
  7850                           ;clcd.c: 34:     _delay((unsigned long)((100)*(20000000/4000000.0)));
  7851     17A0  30A6               	movlw	166
  7852     17A1  00F6               	movwf	??_init_display_controller
  7853     17A2                     u5657:
  7854     17A2  0BF6               	decfsz	??_init_display_controller,f
  7855     17A3  2FA2               	goto	u5657
  7856     17A4  0000               	nop
  7857     17A5                     l183:
  7858     17A5  0008               	return
  7859     17A6                     __end_of_init_display_controller:
  7860                           
  7861                           	psect	text23
  7862     120C                     __ptext23:	
  7863 ;; *************** function _init_adc *****************
  7864 ;; Defined at:
  7865 ;;		line 3 in file "adc.c"
  7866 ;; Parameters:    Size  Location     Type
  7867 ;;		None
  7868 ;; Auto vars:     Size  Location     Type
  7869 ;;		None
  7870 ;; Return value:  Size  Location     Type
  7871 ;;                  1    wreg      void 
  7872 ;; Registers used:
  7873 ;;		None
  7874 ;; Tracked objects:
  7875 ;;		On entry : 0/0
  7876 ;;		On exit  : 0/0
  7877 ;;		Unchanged: 0/0
  7878 ;; Data sizes:     COMMON   BANK0   BANK1   BANK3   BANK2
  7879 ;;      Params:         0       0       0       0       0
  7880 ;;      Locals:         0       0       0       0       0
  7881 ;;      Temps:          0       0       0       0       0
  7882 ;;      Totals:         0       0       0       0       0
  7883 ;;Total ram usage:        0 bytes
  7884 ;; Hardware stack levels used: 1
  7885 ;; Hardware stack levels required when called: 1
  7886 ;; This function calls:
  7887 ;;		Nothing
  7888 ;; This function is called by:
  7889 ;;		_init_config
  7890 ;; This function uses a non-reentrant model
  7891 ;;
  7892                           
  7893     120C                     _init_adc:	
  7894                           ;psect for function _init_adc
  7895                           
  7896     120C                     l2812:	
  7897                           ;incstack = 0
  7898                           ; Regs used in _init_adc: []
  7899                           
  7900                           
  7901                           ;adc.c: 6:     ADFM = 1;
  7902     120C  1683               	bsf	3,5	;RP0=1, select bank1
  7903     120D  1303               	bcf	3,6	;RP1=0, select bank1
  7904     120E  179F               	bsf	31,7	;volatile
  7905                           
  7906                           ;adc.c: 9:     ADON = 1;
  7907     120F  1283               	bcf	3,5	;RP0=0, select bank0
  7908     1210  1303               	bcf	3,6	;RP1=0, select bank0
  7909     1211  141F               	bsf	31,0	;volatile
  7910     1212                     l302:
  7911     1212  0008               	return
  7912     1213                     __end_of_init_adc:
  7913                           
  7914                           	psect	text24
  7915     0896                     __ptext24:	
  7916 ;; *************** function _download_log *****************
  7917 ;; Defined at:
  7918 ;;		line 395 in file "car_black_box_def.c"
  7919 ;; Parameters:    Size  Location     Type
  7920 ;;		None
  7921 ;; Auto vars:     Size  Location     Type
  7922 ;;  i               1    9[COMMON] unsigned char 
  7923 ;;  i               1    0        unsigned char 
  7924 ;; Return value:  Size  Location     Type
  7925 ;;                  1    wreg      void 
  7926 ;; Registers used:
  7927 ;;		wreg, fsr0l, fsr0h, status,2, status,0, pclath, btemp1, cstack
  7928 ;; Tracked objects:
  7929 ;;		On entry : 0/0
  7930 ;;		On exit  : 0/0
  7931 ;;		Unchanged: 0/0
  7932 ;; Data sizes:     COMMON   BANK0   BANK1   BANK3   BANK2
  7933 ;;      Params:         0       0       0       0       0
  7934 ;;      Locals:         1       0       0       0       0
  7935 ;;      Temps:          0       3       0       0       0
  7936 ;;      Totals:         1       3       0       0       0
  7937 ;;Total ram usage:        4 bytes
  7938 ;; Hardware stack levels used: 1
  7939 ;; Hardware stack levels required when called: 4
  7940 ;; This function calls:
  7941 ;;		_clcd_print
  7942 ;;		_display_uart
  7943 ;;		_get_saved_log
  7944 ;;		_puts
  7945 ;; This function is called by:
  7946 ;;		_main
  7947 ;; This function uses a non-reentrant model
  7948 ;;
  7949                           
  7950     0896                     _download_log:	
  7951                           ;psect for function _download_log
  7952                           
  7953     0896                     l4420:	
  7954                           ;incstack = 0
  7955                           ; Regs used in _download_log: [wreg-fsr0h+status,2+status,0+pclath+btemp1+cstack]
  7956                           
  7957     0896                     l4422:
  7958                           
  7959                           ;car_black_box_def.c: 399:     if (log_flag)
  7960     0896  1283               	bcf	3,5	;RP0=0, select bank0
  7961     0897  1303               	bcf	3,6	;RP1=0, select bank0
  7962     0898  086E               	movf	_log_flag,w
  7963     0899  1903               	btfsc	3,2
  7964     089A  289C               	goto	u4641
  7965     089B  289D               	goto	u4640
  7966     089C                     u4641:
  7967     089C  28CA               	goto	l4438
  7968     089D                     u4640:
  7969     089D                     l4424:
  7970                           
  7971                           ;car_black_box_def.c: 400:     {;car_black_box_def.c: 402:         puts("\r\n# TIME     
      +                          EV SP\r\n");
  7972     089D  3016               	movlw	low (STR_27| (0+32768))
  7973     089E  00F3               	movwf	puts@s
  7974     089F  3090               	movlw	high (STR_27| (0+32768))
  7975     08A0  00F4               	movwf	puts@s+1
  7976     08A1  160A  118A  2395  120A  158A  	fcall	_puts
  7977     08A6                     l4426:
  7978                           
  7979                           ;car_black_box_def.c: 404:         for (unsigned char i = 0; i < log_count; i++)
  7980     08A6  01F9               	clrf	download_log@i_396
  7981     08A7  28B6               	goto	l4434
  7982     08A8                     l4428:
  7983                           
  7984                           ;car_black_box_def.c: 405:         {;car_black_box_def.c: 406:             get_saved_log
      +                          (i);
  7985     08A8  0879               	movf	download_log@i_396,w
  7986     08A9  160A  118A  2655  120A  158A  	fcall	_get_saved_log
  7987     08AE                     l4430:
  7988                           
  7989                           ;car_black_box_def.c: 407:             display_uart(i);
  7990     08AE  0879               	movf	download_log@i_396,w
  7991     08AF  120A  158A  2224  120A  158A  	fcall	_display_uart
  7992     08B4                     l4432:
  7993                           
  7994                           ;car_black_box_def.c: 408:         }
  7995     08B4  3001               	movlw	1
  7996     08B5  07F9               	addwf	download_log@i_396,f
  7997     08B6                     l4434:
  7998     08B6  1283               	bcf	3,5	;RP0=0, select bank0
  7999     08B7  1303               	bcf	3,6	;RP1=0, select bank0
  8000     08B8  086D               	movf	_log_count,w
  8001     08B9  0279               	subwf	download_log@i_396,w
  8002     08BA  1C03               	skipc
  8003     08BB  28BD               	goto	u4651
  8004     08BC  28BE               	goto	u4650
  8005     08BD                     u4651:
  8006     08BD  28A8               	goto	l4428
  8007     08BE                     u4650:
  8008     08BE                     l4436:
  8009                           
  8010                           ;car_black_box_def.c: 411:         clcd_print("Logs Downloaded", (0x80 + 0));
  8011     08BE  305D               	movlw	low (STR_28| (0+32768))
  8012     08BF  00F6               	movwf	clcd_print@str
  8013     08C0  3090               	movlw	high (STR_28| (0+32768))
  8014     08C1  00F7               	movwf	clcd_print@str+1
  8015     08C2  3080               	movlw	128
  8016     08C3  00F8               	movwf	clcd_print@addr
  8017     08C4  160A  118A  2494  120A  158A  	fcall	_clcd_print
  8018                           
  8019                           ;car_black_box_def.c: 412:     }
  8020     08C9  28E9               	goto	l4440
  8021     08CA                     l4438:
  8022                           
  8023                           ;car_black_box_def.c: 414:     {;car_black_box_def.c: 415:         clcd_print("No logs",
      +                           (0x80 + 0));
  8024     08CA  3060               	movlw	low (STR_24| (0+32768))
  8025     08CB  00F6               	movwf	clcd_print@str
  8026     08CC  3091               	movlw	high (STR_24| (0+32768))
  8027     08CD  00F7               	movwf	clcd_print@str+1
  8028     08CE  3080               	movlw	128
  8029     08CF  00F8               	movwf	clcd_print@addr
  8030     08D0  160A  118A  2494  120A  158A  	fcall	_clcd_print
  8031                           
  8032                           ;car_black_box_def.c: 416:         clcd_print("available", (0xC0 + 0));
  8033     08D5  301F               	movlw	low (STR_30| (0+32768))
  8034     08D6  00F6               	movwf	clcd_print@str
  8035     08D7  3091               	movlw	high (STR_30| (0+32768))
  8036     08D8  00F7               	movwf	clcd_print@str+1
  8037     08D9  30C0               	movlw	192
  8038     08DA  00F8               	movwf	clcd_print@addr
  8039     08DB  160A  118A  2494  120A  158A  	fcall	_clcd_print
  8040                           
  8041                           ;car_black_box_def.c: 417:         puts("\r\nNo logs available\r\n");
  8042     08E0  3000               	movlw	low (STR_31| (0+32768))
  8043     08E1  00F3               	movwf	puts@s
  8044     08E2  3090               	movlw	high (STR_31| (0+32768))
  8045     08E3  00F4               	movwf	puts@s+1
  8046     08E4  160A  118A  2395  120A  158A  	fcall	_puts
  8047     08E9                     l4440:
  8048                           
  8049                           ;car_black_box_def.c: 420:     _delay((unsigned long)((2000)*(20000000/4000.0)));
  8050     08E9  3033               	movlw	51
  8051     08EA  1283               	bcf	3,5	;RP0=0, select bank0
  8052     08EB  1303               	bcf	3,6	;RP1=0, select bank0
  8053     08EC  00A2               	movwf	??_download_log+2
  8054     08ED  30BB               	movlw	187
  8055     08EE  00A1               	movwf	??_download_log+1
  8056     08EF  30DF               	movlw	223
  8057     08F0  00A0               	movwf	??_download_log
  8058     08F1                     u5667:
  8059     08F1  0BA0               	decfsz	??_download_log,f
  8060     08F2  28F1               	goto	u5667
  8061     08F3  0BA1               	decfsz	??_download_log+1,f
  8062     08F4  28F1               	goto	u5667
  8063     08F5  0BA2               	decfsz	??_download_log+2,f
  8064     08F6  28F1               	goto	u5667
  8065     08F7                     l458:
  8066     08F7  0008               	return
  8067     08F8                     __end_of_download_log:
  8068                           
  8069                           	psect	text25
  8070     1395                     __ptext25:	
  8071 ;; *************** function _puts *****************
  8072 ;; Defined at:
  8073 ;;		line 49 in file "uart.c"
  8074 ;; Parameters:    Size  Location     Type
  8075 ;;  s               2    3[COMMON] PTR const unsigned char 
  8076 ;;		 -> STR_31(22), STR_27(21), 
  8077 ;; Auto vars:     Size  Location     Type
  8078 ;;		None
  8079 ;; Return value:  Size  Location     Type
  8080 ;;                  1    wreg      void 
  8081 ;; Registers used:
  8082 ;;		wreg, fsr0l, fsr0h, status,2, status,0, pclath, btemp1, cstack
  8083 ;; Tracked objects:
  8084 ;;		On entry : 0/0
  8085 ;;		On exit  : 0/0
  8086 ;;		Unchanged: 0/0
  8087 ;; Data sizes:     COMMON   BANK0   BANK1   BANK3   BANK2
  8088 ;;      Params:         2       0       0       0       0
  8089 ;;      Locals:         0       0       0       0       0
  8090 ;;      Temps:          0       0       0       0       0
  8091 ;;      Totals:         2       0       0       0       0
  8092 ;;Total ram usage:        2 bytes
  8093 ;; Hardware stack levels used: 1
  8094 ;; Hardware stack levels required when called: 2
  8095 ;; This function calls:
  8096 ;;		_putchar
  8097 ;; This function is called by:
  8098 ;;		_download_log
  8099 ;; This function uses a non-reentrant model
  8100 ;;
  8101                           
  8102     1395                     _puts:	
  8103                           ;psect for function _puts
  8104                           
  8105     1395                     l4152:	
  8106                           ;incstack = 0
  8107                           ; Regs used in _puts: [wreg-fsr0h+status,2+status,0+pclath+btemp1+cstack]
  8108                           
  8109                           
  8110                           ;uart.c: 49: void puts(const char *s);uart.c: 50: {;uart.c: 51:     while (*s)
  8111     1395  2BAA               	goto	l4158
  8112     1396                     l4154:
  8113                           
  8114                           ;uart.c: 52:     {;uart.c: 53:         putchar(*s++);
  8115     1396  0874               	movf	puts@s+1,w
  8116     1397  00FF               	movwf	btemp1
  8117     1398  0873               	movf	puts@s,w
  8118     1399  0084               	movwf	4
  8119     139A  160A  118A  218A  160A  118A  	fcall	stringtab
  8120     139F  160A  118A  2243  160A  118A  	fcall	_putchar
  8121     13A4                     l4156:
  8122     13A4  3001               	movlw	1
  8123     13A5  07F3               	addwf	puts@s,f
  8124     13A6  1803               	skipnc
  8125     13A7  0AF4               	incf	puts@s+1,f
  8126     13A8  3000               	movlw	0
  8127     13A9  07F4               	addwf	puts@s+1,f
  8128     13AA                     l4158:
  8129                           
  8130                           ;uart.c: 51:     while (*s)
  8131     13AA  0874               	movf	puts@s+1,w
  8132     13AB  1283               	bcf	3,5	;RP0=0, select bank0
  8133     13AC  1303               	bcf	3,6	;RP1=0, select bank0
  8134     13AD  00FF               	movwf	btemp1
  8135     13AE  0873               	movf	puts@s,w
  8136     13AF  0084               	movwf	4
  8137     13B0  160A  118A  218A  160A  118A  	fcall	stringtab
  8138     13B5  3A00               	xorlw	0
  8139     13B6  1D03               	skipz
  8140     13B7  2BB9               	goto	u4281
  8141     13B8  2BBA               	goto	u4280
  8142     13B9                     u4281:
  8143     13B9  2B96               	goto	l4154
  8144     13BA                     u4280:
  8145     13BA                     l629:
  8146     13BA  0008               	return
  8147     13BB                     __end_of_puts:
  8148                           
  8149                           	psect	text26
  8150     1655                     __ptext26:	
  8151 ;; *************** function _get_saved_log *****************
  8152 ;; Defined at:
  8153 ;;		line 254 in file "car_black_box_def.c"
  8154 ;; Parameters:    Size  Location     Type
  8155 ;;  view_pos        1    wreg     unsigned char 
  8156 ;; Auto vars:     Size  Location     Type
  8157 ;;  view_pos        1    6[COMMON] unsigned char 
  8158 ;;  i               1    8[COMMON] unsigned char 
  8159 ;;  addr            1    7[COMMON] unsigned char 
  8160 ;; Return value:  Size  Location     Type
  8161 ;;                  1    wreg      void 
  8162 ;; Registers used:
  8163 ;;		wreg, fsr0l, fsr0h, status,2, status,0, pclath, cstack
  8164 ;; Tracked objects:
  8165 ;;		On entry : 0/0
  8166 ;;		On exit  : 0/0
  8167 ;;		Unchanged: 0/0
  8168 ;; Data sizes:     COMMON   BANK0   BANK1   BANK3   BANK2
  8169 ;;      Params:         0       0       0       0       0
  8170 ;;      Locals:         3       0       0       0       0
  8171 ;;      Temps:          0       0       0       0       0
  8172 ;;      Totals:         3       0       0       0       0
  8173 ;;Total ram usage:        3 bytes
  8174 ;; Hardware stack levels used: 1
  8175 ;; Hardware stack levels required when called: 1
  8176 ;; This function calls:
  8177 ;;		___bmul
  8178 ;;		_read_external_eeprom
  8179 ;; This function is called by:
  8180 ;;		_view_log
  8181 ;;		_download_log
  8182 ;; This function uses a non-reentrant model
  8183 ;;
  8184                           
  8185     1655                     _get_saved_log:	
  8186                           ;psect for function _get_saved_log
  8187                           
  8188                           
  8189                           ;incstack = 0
  8190                           ; Regs used in _get_saved_log: [wreg-fsr0h+status,2+status,0+pclath+cstack]
  8191                           ;get_saved_log@view_pos stored from wreg
  8192     1655  00F6               	movwf	get_saved_log@view_pos
  8193     1656                     l4120:
  8194                           
  8195                           ;car_black_box_def.c: 254: static void get_saved_log(unsigned char view_pos);car_black_b
      +                          ox_def.c: 255: {;car_black_box_def.c: 256:     unsigned char i;;car_black_box_def.c: 258
      +                          :     unsigned char addr = (view_pos) * 10 + 5;
  8196     1656  300A               	movlw	10
  8197     1657  00F2               	movwf	___bmul@multiplicand
  8198     1658  0876               	movf	get_saved_log@view_pos,w
  8199     1659  160A  118A  229B  160A  118A  	fcall	___bmul
  8200     165E  3E05               	addlw	5
  8201     165F  00F7               	movwf	get_saved_log@addr
  8202     1660                     l4122:
  8203                           
  8204                           ;car_black_box_def.c: 260:     for (i = 0; i < 6; i++)
  8205     1660  01F8               	clrf	get_saved_log@i
  8206     1661                     l4128:
  8207                           
  8208                           ;car_black_box_def.c: 261:         saved_time[i] = read_external_eeprom(addr + i);
  8209     1661  0878               	movf	get_saved_log@i,w
  8210     1662  3EA0               	addlw	(low (_saved_time| 0))& (0+255)
  8211     1663  0084               	movwf	4
  8212     1664  0878               	movf	get_saved_log@i,w
  8213     1665  0777               	addwf	get_saved_log@addr,w
  8214     1666  160A  118A  243B  160A  118A  	fcall	_read_external_eeprom
  8215     166B  1383               	bcf	3,7	;select IRP bank1
  8216     166C  0080               	movwf	0
  8217     166D                     l4130:
  8218     166D  3001               	movlw	1
  8219     166E  07F8               	addwf	get_saved_log@i,f
  8220     166F                     l4132:
  8221     166F  3006               	movlw	6
  8222     1670  0278               	subwf	get_saved_log@i,w
  8223     1671  1C03               	skipc
  8224     1672  2E74               	goto	u4271
  8225     1673  2E75               	goto	u4270
  8226     1674                     u4271:
  8227     1674  2E61               	goto	l4128
  8228     1675                     u4270:
  8229     1675                     l4134:
  8230                           
  8231                           ;car_black_box_def.c: 262:     saved_time[i] = '\0';
  8232     1675  0878               	movf	get_saved_log@i,w
  8233     1676  3EA0               	addlw	(low (_saved_time| 0))& (0+255)
  8234     1677  0084               	movwf	4
  8235     1678  0180               	clrf	0
  8236     1679                     l4136:
  8237                           
  8238                           ;car_black_box_def.c: 265:     saved_ev[0] = read_external_eeprom(addr + 6);
  8239     1679  0877               	movf	get_saved_log@addr,w
  8240     167A  3E06               	addlw	6
  8241     167B  160A  118A  243B  160A  118A  	fcall	_read_external_eeprom
  8242     1680  1283               	bcf	3,5	;RP0=0, select bank0
  8243     1681  1303               	bcf	3,6	;RP1=0, select bank0
  8244     1682  00D5               	movwf	_saved_ev
  8245     1683                     l4138:
  8246                           
  8247                           ;car_black_box_def.c: 266:     saved_ev[1] = read_external_eeprom(addr + 7);
  8248     1683  0877               	movf	get_saved_log@addr,w
  8249     1684  3E07               	addlw	7
  8250     1685  160A  118A  243B  160A  118A  	fcall	_read_external_eeprom
  8251     168A  1283               	bcf	3,5	;RP0=0, select bank0
  8252     168B  1303               	bcf	3,6	;RP1=0, select bank0
  8253     168C  00D6               	movwf	_saved_ev+1
  8254     168D                     l4140:
  8255                           
  8256                           ;car_black_box_def.c: 267:     saved_ev[2] = '\0';
  8257     168D  01D7               	clrf	_saved_ev+2
  8258     168E                     l4142:
  8259                           
  8260                           ;car_black_box_def.c: 270:     saved_sp[0] = read_external_eeprom(addr + 8);
  8261     168E  0877               	movf	get_saved_log@addr,w
  8262     168F  3E08               	addlw	8
  8263     1690  160A  118A  243B  160A  118A  	fcall	_read_external_eeprom
  8264     1695  1283               	bcf	3,5	;RP0=0, select bank0
  8265     1696  1303               	bcf	3,6	;RP1=0, select bank0
  8266     1697  00D2               	movwf	_saved_sp
  8267     1698                     l4144:
  8268                           
  8269                           ;car_black_box_def.c: 271:     saved_sp[1] = read_external_eeprom(addr + 9);
  8270     1698  0877               	movf	get_saved_log@addr,w
  8271     1699  3E09               	addlw	9
  8272     169A  160A  118A  243B  160A  118A  	fcall	_read_external_eeprom
  8273     169F  1283               	bcf	3,5	;RP0=0, select bank0
  8274     16A0  1303               	bcf	3,6	;RP1=0, select bank0
  8275     16A1  00D3               	movwf	_saved_sp+1
  8276     16A2                     l4146:
  8277                           
  8278                           ;car_black_box_def.c: 272:     saved_sp[2] = '\0';
  8279     16A2  01D4               	clrf	_saved_sp+2
  8280     16A3                     l421:
  8281     16A3  0008               	return
  8282     16A4                     __end_of_get_saved_log:
  8283                           
  8284                           	psect	text27
  8285     143B                     __ptext27:	
  8286 ;; *************** function _read_external_eeprom *****************
  8287 ;; Defined at:
  8288 ;;		line 16 in file "external_eeprom.c"
  8289 ;; Parameters:    Size  Location     Type
  8290 ;;  address         1    wreg     unsigned char 
  8291 ;; Auto vars:     Size  Location     Type
  8292 ;;  address         1    4[COMMON] unsigned char 
  8293 ;;  data            1    5[COMMON] unsigned char 
  8294 ;; Return value:  Size  Location     Type
  8295 ;;                  1    wreg      unsigned char 
  8296 ;; Registers used:
  8297 ;;		wreg, status,2, status,0, pclath, cstack
  8298 ;; Tracked objects:
  8299 ;;		On entry : 0/0
  8300 ;;		On exit  : 0/0
  8301 ;;		Unchanged: 0/0
  8302 ;; Data sizes:     COMMON   BANK0   BANK1   BANK3   BANK2
  8303 ;;      Params:         0       0       0       0       0
  8304 ;;      Locals:         2       0       0       0       0
  8305 ;;      Temps:          0       0       0       0       0
  8306 ;;      Totals:         2       0       0       0       0
  8307 ;;Total ram usage:        2 bytes
  8308 ;; Hardware stack levels used: 1
  8309 ;; Hardware stack levels required when called: 1
  8310 ;; This function calls:
  8311 ;;		_i2c_read
  8312 ;;		_i2c_rep_start
  8313 ;;		_i2c_start
  8314 ;;		_i2c_stop
  8315 ;;		_i2c_write
  8316 ;; This function is called by:
  8317 ;;		_login
  8318 ;;		_get_saved_log
  8319 ;; This function uses a non-reentrant model
  8320 ;;
  8321                           
  8322     143B                     _read_external_eeprom:	
  8323                           ;psect for function _read_external_eeprom
  8324                           
  8325                           
  8326                           ;incstack = 0
  8327                           ; Regs used in _read_external_eeprom: [wreg+status,2+status,0+pclath+cstack]
  8328                           ;read_external_eeprom@address stored from wreg
  8329     143B  00F4               	movwf	read_external_eeprom@address
  8330     143C                     l4018:
  8331                           
  8332                           ;external_eeprom.c: 16: unsigned char read_external_eeprom(unsigned char address);extern
      +                          al_eeprom.c: 17: {;external_eeprom.c: 18:     unsigned char data;;external_eeprom.c: 20:
      +                               i2c_start();
  8333     143C  160A  118A  221B  160A  118A  	fcall	_i2c_start
  8334                           
  8335                           ;external_eeprom.c: 21:     i2c_write(0xA0);
  8336     1441  30A0               	movlw	160
  8337     1442  160A  118A  222D  160A  118A  	fcall	_i2c_write
  8338                           
  8339                           ;external_eeprom.c: 22:     i2c_write(address);
  8340     1447  0874               	movf	read_external_eeprom@address,w
  8341     1448  160A  118A  222D  160A  118A  	fcall	_i2c_write
  8342                           
  8343                           ;external_eeprom.c: 23:     i2c_rep_start();
  8344     144D  160A  118A  2238  160A  118A  	fcall	_i2c_rep_start
  8345                           
  8346                           ;external_eeprom.c: 24:     i2c_write(0xA1);
  8347     1452  30A1               	movlw	161
  8348     1453  160A  118A  222D  160A  118A  	fcall	_i2c_write
  8349                           
  8350                           ;external_eeprom.c: 25:     data = i2c_read(1);
  8351     1458  3001               	movlw	1
  8352     1459  160A  118A  232D  160A  118A  	fcall	_i2c_read
  8353     145E  00F5               	movwf	read_external_eeprom@data
  8354                           
  8355                           ;external_eeprom.c: 26:     i2c_stop();
  8356     145F  160A  118A  2224  160A  118A  	fcall	_i2c_stop
  8357     1464                     l4020:
  8358                           
  8359                           ;external_eeprom.c: 28:     return data;
  8360     1464  0875               	movf	read_external_eeprom@data,w
  8361     1465                     l555:
  8362     1465  0008               	return
  8363     1466                     __end_of_read_external_eeprom:
  8364                           
  8365                           	psect	text28
  8366     129B                     __ptext28:	
  8367 ;; *************** function ___bmul *****************
  8368 ;; Defined at:
  8369 ;;		line 4 in file "C:\Program Files\Microchip\xc8\v3.10\pic\sources\c99\common\Umul8.c"
  8370 ;; Parameters:    Size  Location     Type
  8371 ;;  multiplier      1    wreg     unsigned char 
  8372 ;;  multiplicand    1    2[COMMON] unsigned char 
  8373 ;; Auto vars:     Size  Location     Type
  8374 ;;  multiplier      1    4[COMMON] unsigned char 
  8375 ;;  product         1    3[COMMON] unsigned char 
  8376 ;; Return value:  Size  Location     Type
  8377 ;;                  1    wreg      unsigned char 
  8378 ;; Registers used:
  8379 ;;		wreg, status,2, status,0
  8380 ;; Tracked objects:
  8381 ;;		On entry : 0/0
  8382 ;;		On exit  : 0/0
  8383 ;;		Unchanged: 0/0
  8384 ;; Data sizes:     COMMON   BANK0   BANK1   BANK3   BANK2
  8385 ;;      Params:         1       0       0       0       0
  8386 ;;      Locals:         2       0       0       0       0
  8387 ;;      Temps:          0       0       0       0       0
  8388 ;;      Totals:         3       0       0       0       0
  8389 ;;Total ram usage:        3 bytes
  8390 ;; Hardware stack levels used: 1
  8391 ;; Hardware stack levels required when called: 1
  8392 ;; This function calls:
  8393 ;;		Nothing
  8394 ;; This function is called by:
  8395 ;;		_log_car_event
  8396 ;;		_get_saved_log
  8397 ;;		_set_time
  8398 ;; This function uses a non-reentrant model
  8399 ;;
  8400                           
  8401     129B                     ___bmul:	
  8402                           ;psect for function ___bmul
  8403                           
  8404                           
  8405                           ;incstack = 0
  8406                           ; Regs used in ___bmul: [wreg+status,2+status,0]
  8407                           ;___bmul@multiplier stored from wreg
  8408     129B  00F4               	movwf	___bmul@multiplier
  8409     129C                     l4026:
  8410     129C  01F3               	clrf	___bmul@product
  8411     129D                     l4028:
  8412     129D  1C74               	btfss	___bmul@multiplier,0
  8413     129E  2AA0               	goto	u4131
  8414     129F  2AA1               	goto	u4130
  8415     12A0                     u4131:
  8416     12A0  2AA3               	goto	l4032
  8417     12A1                     u4130:
  8418     12A1                     l4030:
  8419     12A1  0872               	movf	___bmul@multiplicand,w
  8420     12A2  07F3               	addwf	___bmul@product,f
  8421     12A3                     l4032:
  8422     12A3  1003               	clrc
  8423     12A4  0DF2               	rlf	___bmul@multiplicand,f
  8424     12A5                     l4034:
  8425     12A5  1003               	clrc
  8426     12A6  0CF4               	rrf	___bmul@multiplier,f
  8427     12A7  0874               	movf	___bmul@multiplier,w
  8428     12A8  1D03               	btfss	3,2
  8429     12A9  2AAB               	goto	u4141
  8430     12AA  2AAC               	goto	u4140
  8431     12AB                     u4141:
  8432     12AB  2A9D               	goto	l4028
  8433     12AC                     u4140:
  8434     12AC                     l4036:
  8435     12AC  0873               	movf	___bmul@product,w
  8436     12AD                     l741:
  8437     12AD  0008               	return
  8438     12AE                     __end_of___bmul:
  8439                           
  8440                           	psect	text29
  8441     0A24                     __ptext29:	
  8442 ;; *************** function _display_uart *****************
  8443 ;; Defined at:
  8444 ;;		line 369 in file "car_black_box_def.c"
  8445 ;; Parameters:    Size  Location     Type
  8446 ;;  view_pos        1    wreg     unsigned char 
  8447 ;; Auto vars:     Size  Location     Type
  8448 ;;  view_pos        1    3[COMMON] unsigned char 
  8449 ;; Return value:  Size  Location     Type
  8450 ;;                  1    wreg      void 
  8451 ;; Registers used:
  8452 ;;		wreg, status,2, status,0, pclath, cstack
  8453 ;; Tracked objects:
  8454 ;;		On entry : 0/0
  8455 ;;		On exit  : 0/0
  8456 ;;		Unchanged: 0/0
  8457 ;; Data sizes:     COMMON   BANK0   BANK1   BANK3   BANK2
  8458 ;;      Params:         0       0       0       0       0
  8459 ;;      Locals:         1       0       0       0       0
  8460 ;;      Temps:          0       0       0       0       0
  8461 ;;      Totals:         1       0       0       0       0
  8462 ;;Total ram usage:        1 bytes
  8463 ;; Hardware stack levels used: 1
  8464 ;; Hardware stack levels required when called: 2
  8465 ;; This function calls:
  8466 ;;		_putchar
  8467 ;; This function is called by:
  8468 ;;		_download_log
  8469 ;; This function uses a non-reentrant model
  8470 ;;
  8471                           
  8472     0A24                     _display_uart:	
  8473                           ;psect for function _display_uart
  8474                           
  8475                           
  8476                           ;incstack = 0
  8477                           ; Regs used in _display_uart: [wreg+status,2+status,0+pclath+cstack]
  8478                           ;display_uart@view_pos stored from wreg
  8479     0A24  00F3               	movwf	display_uart@view_pos
  8480     0A25                     l4150:
  8481                           
  8482                           ;car_black_box_def.c: 369: static void display_uart(unsigned char view_pos);car_black_bo
      +                          x_def.c: 370: {;car_black_box_def.c: 371:     putchar('\r');
  8483     0A25  300D               	movlw	13
  8484     0A26  160A  118A  2243  120A  158A  	fcall	_putchar
  8485                           
  8486                           ;car_black_box_def.c: 372:     putchar('\n');
  8487     0A2B  300A               	movlw	10
  8488     0A2C  160A  118A  2243  120A  158A  	fcall	_putchar
  8489                           
  8490                           ;car_black_box_def.c: 374:     putchar(view_pos + 1 + '0');
  8491     0A31  0873               	movf	display_uart@view_pos,w
  8492     0A32  3E31               	addlw	49
  8493     0A33  160A  118A  2243  120A  158A  	fcall	_putchar
  8494                           
  8495                           ;car_black_box_def.c: 375:     putchar(' ');
  8496     0A38  3020               	movlw	32
  8497     0A39  160A  118A  2243  120A  158A  	fcall	_putchar
  8498                           
  8499                           ;car_black_box_def.c: 377:     putchar(saved_time[0]);
  8500     0A3E  1683               	bsf	3,5	;RP0=1, select bank1
  8501     0A3F  1303               	bcf	3,6	;RP1=0, select bank1
  8502     0A40  0820               	movf	_saved_time^(0+128),w
  8503     0A41  160A  118A  2243  120A  158A  	fcall	_putchar
  8504                           
  8505                           ;car_black_box_def.c: 378:     putchar(saved_time[1]);
  8506     0A46  1683               	bsf	3,5	;RP0=1, select bank1
  8507     0A47  1303               	bcf	3,6	;RP1=0, select bank1
  8508     0A48  0821               	movf	(_saved_time^(0+128)+1),w
  8509     0A49  160A  118A  2243  120A  158A  	fcall	_putchar
  8510                           
  8511                           ;car_black_box_def.c: 379:     putchar(':');
  8512     0A4E  303A               	movlw	58
  8513     0A4F  160A  118A  2243  120A  158A  	fcall	_putchar
  8514                           
  8515                           ;car_black_box_def.c: 380:     putchar(saved_time[2]);
  8516     0A54  1683               	bsf	3,5	;RP0=1, select bank1
  8517     0A55  1303               	bcf	3,6	;RP1=0, select bank1
  8518     0A56  0822               	movf	(_saved_time^(0+128)+2),w
  8519     0A57  160A  118A  2243  120A  158A  	fcall	_putchar
  8520                           
  8521                           ;car_black_box_def.c: 381:     putchar(saved_time[3]);
  8522     0A5C  1683               	bsf	3,5	;RP0=1, select bank1
  8523     0A5D  1303               	bcf	3,6	;RP1=0, select bank1
  8524     0A5E  0823               	movf	(_saved_time^(0+128)+3),w
  8525     0A5F  160A  118A  2243  120A  158A  	fcall	_putchar
  8526                           
  8527                           ;car_black_box_def.c: 382:     putchar(':');
  8528     0A64  303A               	movlw	58
  8529     0A65  160A  118A  2243  120A  158A  	fcall	_putchar
  8530                           
  8531                           ;car_black_box_def.c: 383:     putchar(saved_time[4]);
  8532     0A6A  1683               	bsf	3,5	;RP0=1, select bank1
  8533     0A6B  1303               	bcf	3,6	;RP1=0, select bank1
  8534     0A6C  0824               	movf	(_saved_time^(0+128)+4),w
  8535     0A6D  160A  118A  2243  120A  158A  	fcall	_putchar
  8536                           
  8537                           ;car_black_box_def.c: 384:     putchar(saved_time[5]);
  8538     0A72  1683               	bsf	3,5	;RP0=1, select bank1
  8539     0A73  1303               	bcf	3,6	;RP1=0, select bank1
  8540     0A74  0825               	movf	(_saved_time^(0+128)+5),w
  8541     0A75  160A  118A  2243  120A  158A  	fcall	_putchar
  8542                           
  8543                           ;car_black_box_def.c: 385:     putchar(' ');
  8544     0A7A  3020               	movlw	32
  8545     0A7B  160A  118A  2243  120A  158A  	fcall	_putchar
  8546                           
  8547                           ;car_black_box_def.c: 387:     putchar(saved_ev[0]);
  8548     0A80  1283               	bcf	3,5	;RP0=0, select bank0
  8549     0A81  1303               	bcf	3,6	;RP1=0, select bank0
  8550     0A82  0855               	movf	_saved_ev,w
  8551     0A83  160A  118A  2243  120A  158A  	fcall	_putchar
  8552                           
  8553                           ;car_black_box_def.c: 388:     putchar(saved_ev[1]);
  8554     0A88  1283               	bcf	3,5	;RP0=0, select bank0
  8555     0A89  1303               	bcf	3,6	;RP1=0, select bank0
  8556     0A8A  0856               	movf	_saved_ev+1,w
  8557     0A8B  160A  118A  2243  120A  158A  	fcall	_putchar
  8558                           
  8559                           ;car_black_box_def.c: 389:     putchar(' ');
  8560     0A90  3020               	movlw	32
  8561     0A91  160A  118A  2243  120A  158A  	fcall	_putchar
  8562                           
  8563                           ;car_black_box_def.c: 391:     putchar(saved_sp[0]);
  8564     0A96  1283               	bcf	3,5	;RP0=0, select bank0
  8565     0A97  1303               	bcf	3,6	;RP1=0, select bank0
  8566     0A98  0852               	movf	_saved_sp,w
  8567     0A99  160A  118A  2243  120A  158A  	fcall	_putchar
  8568                           
  8569                           ;car_black_box_def.c: 392:     putchar(saved_sp[1]);
  8570     0A9E  1283               	bcf	3,5	;RP0=0, select bank0
  8571     0A9F  1303               	bcf	3,6	;RP1=0, select bank0
  8572     0AA0  0853               	movf	_saved_sp+1,w
  8573     0AA1  160A  118A  2243  120A  158A  	fcall	_putchar
  8574     0AA6                     l450:
  8575     0AA6  0008               	return
  8576     0AA7                     __end_of_display_uart:
  8577                           
  8578                           	psect	text30
  8579     1243                     __ptext30:	
  8580 ;; *************** function _putchar *****************
  8581 ;; Defined at:
  8582 ;;		line 34 in file "uart.c"
  8583 ;; Parameters:    Size  Location     Type
  8584 ;;  data            1    wreg     unsigned char 
  8585 ;; Auto vars:     Size  Location     Type
  8586 ;;  data            1    2[COMMON] unsigned char 
  8587 ;; Return value:  Size  Location     Type
  8588 ;;                  1    wreg      void 
  8589 ;; Registers used:
  8590 ;;		wreg
  8591 ;; Tracked objects:
  8592 ;;		On entry : 0/0
  8593 ;;		On exit  : 0/0
  8594 ;;		Unchanged: 0/0
  8595 ;; Data sizes:     COMMON   BANK0   BANK1   BANK3   BANK2
  8596 ;;      Params:         0       0       0       0       0
  8597 ;;      Locals:         1       0       0       0       0
  8598 ;;      Temps:          0       0       0       0       0
  8599 ;;      Totals:         1       0       0       0       0
  8600 ;;Total ram usage:        1 bytes
  8601 ;; Hardware stack levels used: 1
  8602 ;; Hardware stack levels required when called: 1
  8603 ;; This function calls:
  8604 ;;		Nothing
  8605 ;; This function is called by:
  8606 ;;		_display_uart
  8607 ;;		_puts
  8608 ;; This function uses a non-reentrant model
  8609 ;;
  8610                           
  8611     1243                     _putchar:	
  8612                           ;psect for function _putchar
  8613                           
  8614                           
  8615                           ;incstack = 0
  8616                           ; Regs used in _putchar: [wreg]
  8617                           ;putchar@data stored from wreg
  8618     1243  00F2               	movwf	putchar@data
  8619     1244                     l4024:
  8620                           
  8621                           ;uart.c: 34: void putchar(unsigned char data);uart.c: 35: {;uart.c: 37:     TXREG = data
      +                          ;
  8622     1244  0872               	movf	putchar@data,w
  8623     1245  1283               	bcf	3,5	;RP0=0, select bank0
  8624     1246  1303               	bcf	3,6	;RP1=0, select bank0
  8625     1247  0099               	movwf	25	;volatile
  8626     1248                     l621:	
  8627                           ;uart.c: 43:     } while (TXIF != 1);
  8628                           
  8629     1248  1E0C               	btfss	12,4	;volatile
  8630     1249  2A4B               	goto	u4121
  8631     124A  2A4C               	goto	u4120
  8632     124B                     u4121:
  8633     124B  2A48               	goto	l621
  8634     124C                     u4120:
  8635     124C                     l622:
  8636                           
  8637                           ;uart.c: 46:     TXIF = 0;
  8638     124C  120C               	bcf	12,4	;volatile
  8639     124D                     l623:
  8640     124D  0008               	return
  8641     124E                     __end_of_putchar:
  8642                           
  8643                           	psect	text31
  8644     16A4                     __ptext31:	
  8645 ;; *************** function _display_dashboard *****************
  8646 ;; Defined at:
  8647 ;;		line 57 in file "car_black_box_def.c"
  8648 ;; Parameters:    Size  Location     Type
  8649 ;;  event           1    2[BANK0 ] PTR unsigned char 
  8650 ;;		 -> main@event(3), 
  8651 ;;  speed           1    3[BANK0 ] unsigned char 
  8652 ;; Auto vars:     Size  Location     Type
  8653 ;;		None
  8654 ;; Return value:  Size  Location     Type
  8655 ;;                  1    wreg      void 
  8656 ;; Registers used:
  8657 ;;		wreg, fsr0l, fsr0h, status,2, status,0, pclath, btemp1, cstack
  8658 ;; Tracked objects:
  8659 ;;		On entry : 0/0
  8660 ;;		On exit  : 0/0
  8661 ;;		Unchanged: 0/0
  8662 ;; Data sizes:     COMMON   BANK0   BANK1   BANK3   BANK2
  8663 ;;      Params:         0       2       0       0       0
  8664 ;;      Locals:         0       0       0       0       0
  8665 ;;      Temps:          0       2       0       0       0
  8666 ;;      Totals:         0       4       0       0       0
  8667 ;;Total ram usage:        4 bytes
  8668 ;; Hardware stack levels used: 1
  8669 ;; Hardware stack levels required when called: 6
  8670 ;; This function calls:
  8671 ;;		___awdiv
  8672 ;;		___awmod
  8673 ;;		_clcd_print
  8674 ;;		_clcd_putch
  8675 ;;		_display_time
  8676 ;; This function is called by:
  8677 ;;		_main
  8678 ;; This function uses a non-reentrant model
  8679 ;;
  8680                           
  8681     16A4                     _display_dashboard:	
  8682                           ;psect for function _display_dashboard
  8683                           
  8684     16A4                     l4184:	
  8685                           ;incstack = 0
  8686                           ; Regs used in _display_dashboard: [wreg-fsr0h+status,2+status,0+pclath+btemp1+cstack]
  8687                           
  8688                           
  8689                           ;car_black_box_def.c: 57: void display_dashboard(char event[], unsigned char speed);car_
      +                          black_box_def.c: 58: {;car_black_box_def.c: 59:     clcd_print("TIME     EV  SP", (0x80 
      +                          + 1));
  8690     16A4  304D               	movlw	low (STR_15| (0+32768))
  8691     16A5  00F6               	movwf	clcd_print@str
  8692     16A6  3090               	movlw	high (STR_15| (0+32768))
  8693     16A7  00F7               	movwf	clcd_print@str+1
  8694     16A8  3081               	movlw	129
  8695     16A9  00F8               	movwf	clcd_print@addr
  8696     16AA  160A  118A  2494  160A  118A  	fcall	_clcd_print
  8697     16AF                     l4186:
  8698                           
  8699                           ;car_black_box_def.c: 62:     display_time();
  8700     16AF  120A  158A  2034  160A  118A  	fcall	_display_time
  8701     16B4                     l4188:
  8702                           
  8703                           ;car_black_box_def.c: 65:     clcd_print(event, (0xC0 + 10));
  8704     16B4  1283               	bcf	3,5	;RP0=0, select bank0
  8705     16B5  1303               	bcf	3,6	;RP1=0, select bank0
  8706     16B6  0822               	movf	display_dashboard@event,w
  8707     16B7  00F6               	movwf	clcd_print@str
  8708     16B8  3000               	movlw	0
  8709     16B9  00F7               	movwf	clcd_print@str+1
  8710     16BA  30CA               	movlw	202
  8711     16BB  00F8               	movwf	clcd_print@addr
  8712     16BC  160A  118A  2494  160A  118A  	fcall	_clcd_print
  8713                           
  8714                           ;car_black_box_def.c: 68:     clcd_putch(speed / 10 + '0', (0xC0 + 14));
  8715     16C1  30CE               	movlw	206
  8716     16C2  1283               	bcf	3,5	;RP0=0, select bank0
  8717     16C3  1303               	bcf	3,6	;RP1=0, select bank0
  8718     16C4  00A0               	movwf	clcd_putch@addr
  8719     16C5  300A               	movlw	10
  8720     16C6  00F2               	movwf	___awdiv@divisor
  8721     16C7  3000               	movlw	0
  8722     16C8  00F3               	movwf	___awdiv@divisor+1
  8723     16C9  0823               	movf	display_dashboard@speed,w
  8724     16CA  00A4               	movwf	??_display_dashboard
  8725     16CB  01A5               	clrf	??_display_dashboard+1
  8726     16CC  0824               	movf	??_display_dashboard,w
  8727     16CD  00F4               	movwf	___awdiv@dividend
  8728     16CE  0825               	movf	??_display_dashboard+1,w
  8729     16CF  00F5               	movwf	___awdiv@dividend+1
  8730     16D0  120A  158A  20F8  160A  118A  	fcall	___awdiv
  8731     16D5  0872               	movf	?___awdiv,w
  8732     16D6  3E30               	addlw	48
  8733     16D7  160A  118A  22C1  160A  118A  	fcall	_clcd_putch
  8734                           
  8735                           ;car_black_box_def.c: 69:     clcd_putch(speed % 10 + '0', (0xC0 + 15));
  8736     16DC  30CF               	movlw	207
  8737     16DD  1283               	bcf	3,5	;RP0=0, select bank0
  8738     16DE  1303               	bcf	3,6	;RP1=0, select bank0
  8739     16DF  00A0               	movwf	clcd_putch@addr
  8740     16E0  300A               	movlw	10
  8741     16E1  00F2               	movwf	___awmod@divisor
  8742     16E2  3000               	movlw	0
  8743     16E3  00F3               	movwf	___awmod@divisor+1
  8744     16E4  0823               	movf	display_dashboard@speed,w
  8745     16E5  00A4               	movwf	??_display_dashboard
  8746     16E6  01A5               	clrf	??_display_dashboard+1
  8747     16E7  0824               	movf	??_display_dashboard,w
  8748     16E8  00F4               	movwf	___awmod@dividend
  8749     16E9  0825               	movf	??_display_dashboard+1,w
  8750     16EA  00F5               	movwf	___awmod@dividend+1
  8751     16EB  160A  118A  26F8  160A  118A  	fcall	___awmod
  8752     16F0  0872               	movf	?___awmod,w
  8753     16F1  3E30               	addlw	48
  8754     16F2  160A  118A  22C1  160A  118A  	fcall	_clcd_putch
  8755     16F7                     l371:
  8756     16F7  0008               	return
  8757     16F8                     __end_of_display_dashboard:
  8758                           
  8759                           	psect	text32
  8760     0834                     __ptext32:	
  8761 ;; *************** function _display_time *****************
  8762 ;; Defined at:
  8763 ;;		line 44 in file "car_black_box_def.c"
  8764 ;; Parameters:    Size  Location     Type
  8765 ;;		None
  8766 ;; Auto vars:     Size  Location     Type
  8767 ;;		None
  8768 ;; Return value:  Size  Location     Type
  8769 ;;                  1    wreg      void 
  8770 ;; Registers used:
  8771 ;;		wreg, status,2, status,0, pclath, cstack
  8772 ;; Tracked objects:
  8773 ;;		On entry : 0/0
  8774 ;;		On exit  : 0/0
  8775 ;;		Unchanged: 0/0
  8776 ;; Data sizes:     COMMON   BANK0   BANK1   BANK3   BANK2
  8777 ;;      Params:         0       0       0       0       0
  8778 ;;      Locals:         0       0       0       0       0
  8779 ;;      Temps:          0       0       0       0       0
  8780 ;;      Totals:         0       0       0       0       0
  8781 ;;Total ram usage:        0 bytes
  8782 ;; Hardware stack levels used: 1
  8783 ;; Hardware stack levels required when called: 5
  8784 ;; This function calls:
  8785 ;;		_clcd_putch
  8786 ;;		_get_time
  8787 ;; This function is called by:
  8788 ;;		_display_dashboard
  8789 ;; This function uses a non-reentrant model
  8790 ;;
  8791                           
  8792     0834                     _display_time:	
  8793                           ;psect for function _display_time
  8794                           
  8795     0834                     l4102:	
  8796                           ;incstack = 0
  8797                           ; Regs used in _display_time: [wreg+status,2+status,0+pclath+cstack]
  8798                           
  8799                           
  8800                           ;car_black_box_def.c: 46:     get_time();
  8801     0834  120A  158A  215B  120A  158A  	fcall	_get_time
  8802                           
  8803                           ;car_black_box_def.c: 47:     clcd_putch(time[0], (0xC0 + 1));
  8804     0839  30C1               	movlw	193
  8805     083A  1283               	bcf	3,5	;RP0=0, select bank0
  8806     083B  1303               	bcf	3,6	;RP1=0, select bank0
  8807     083C  00A0               	movwf	clcd_putch@addr
  8808     083D  1683               	bsf	3,5	;RP0=1, select bank1
  8809     083E  1303               	bcf	3,6	;RP1=0, select bank1
  8810     083F  0832               	movf	_time^(0+128),w
  8811     0840  160A  118A  22C1  120A  158A  	fcall	_clcd_putch
  8812                           
  8813                           ;car_black_box_def.c: 48:     clcd_putch(time[1], (0xC0 + 2));
  8814     0845  30C2               	movlw	194
  8815     0846  1283               	bcf	3,5	;RP0=0, select bank0
  8816     0847  1303               	bcf	3,6	;RP1=0, select bank0
  8817     0848  00A0               	movwf	clcd_putch@addr
  8818     0849  1683               	bsf	3,5	;RP0=1, select bank1
  8819     084A  1303               	bcf	3,6	;RP1=0, select bank1
  8820     084B  0833               	movf	(_time^(0+128)+1),w
  8821     084C  160A  118A  22C1  120A  158A  	fcall	_clcd_putch
  8822                           
  8823                           ;car_black_box_def.c: 49:     clcd_putch(':', (0xC0 + 3));
  8824     0851  30C3               	movlw	195
  8825     0852  1283               	bcf	3,5	;RP0=0, select bank0
  8826     0853  1303               	bcf	3,6	;RP1=0, select bank0
  8827     0854  00A0               	movwf	clcd_putch@addr
  8828     0855  303A               	movlw	58
  8829     0856  160A  118A  22C1  120A  158A  	fcall	_clcd_putch
  8830                           
  8831                           ;car_black_box_def.c: 50:     clcd_putch(time[2], (0xC0 + 4));
  8832     085B  30C4               	movlw	196
  8833     085C  1283               	bcf	3,5	;RP0=0, select bank0
  8834     085D  1303               	bcf	3,6	;RP1=0, select bank0
  8835     085E  00A0               	movwf	clcd_putch@addr
  8836     085F  1683               	bsf	3,5	;RP0=1, select bank1
  8837     0860  1303               	bcf	3,6	;RP1=0, select bank1
  8838     0861  0834               	movf	(_time^(0+128)+2),w
  8839     0862  160A  118A  22C1  120A  158A  	fcall	_clcd_putch
  8840                           
  8841                           ;car_black_box_def.c: 51:     clcd_putch(time[3], (0xC0 + 5));
  8842     0867  30C5               	movlw	197
  8843     0868  1283               	bcf	3,5	;RP0=0, select bank0
  8844     0869  1303               	bcf	3,6	;RP1=0, select bank0
  8845     086A  00A0               	movwf	clcd_putch@addr
  8846     086B  1683               	bsf	3,5	;RP0=1, select bank1
  8847     086C  1303               	bcf	3,6	;RP1=0, select bank1
  8848     086D  0835               	movf	(_time^(0+128)+3),w
  8849     086E  160A  118A  22C1  120A  158A  	fcall	_clcd_putch
  8850                           
  8851                           ;car_black_box_def.c: 52:     clcd_putch(':', (0xC0 + 6));
  8852     0873  30C6               	movlw	198
  8853     0874  1283               	bcf	3,5	;RP0=0, select bank0
  8854     0875  1303               	bcf	3,6	;RP1=0, select bank0
  8855     0876  00A0               	movwf	clcd_putch@addr
  8856     0877  303A               	movlw	58
  8857     0878  160A  118A  22C1  120A  158A  	fcall	_clcd_putch
  8858                           
  8859                           ;car_black_box_def.c: 53:     clcd_putch(time[4], (0xC0 + 7));
  8860     087D  30C7               	movlw	199
  8861     087E  1283               	bcf	3,5	;RP0=0, select bank0
  8862     087F  1303               	bcf	3,6	;RP1=0, select bank0
  8863     0880  00A0               	movwf	clcd_putch@addr
  8864     0881  1683               	bsf	3,5	;RP0=1, select bank1
  8865     0882  1303               	bcf	3,6	;RP1=0, select bank1
  8866     0883  0836               	movf	(_time^(0+128)+4),w
  8867     0884  160A  118A  22C1  120A  158A  	fcall	_clcd_putch
  8868                           
  8869                           ;car_black_box_def.c: 54:     clcd_putch(time[5], (0xC0 + 8));
  8870     0889  30C8               	movlw	200
  8871     088A  1283               	bcf	3,5	;RP0=0, select bank0
  8872     088B  1303               	bcf	3,6	;RP1=0, select bank0
  8873     088C  00A0               	movwf	clcd_putch@addr
  8874     088D  1683               	bsf	3,5	;RP0=1, select bank1
  8875     088E  1303               	bcf	3,6	;RP1=0, select bank1
  8876     088F  0837               	movf	(_time^(0+128)+5),w
  8877     0890  160A  118A  22C1  120A  158A  	fcall	_clcd_putch
  8878     0895                     l368:
  8879     0895  0008               	return
  8880     0896                     __end_of_display_time:
  8881                           
  8882                           	psect	text33
  8883     095B                     __ptext33:	
  8884 ;; *************** function _get_time *****************
  8885 ;; Defined at:
  8886 ;;		line 23 in file "car_black_box_def.c"
  8887 ;; Parameters:    Size  Location     Type
  8888 ;;		None
  8889 ;; Auto vars:     Size  Location     Type
  8890 ;;		None
  8891 ;; Return value:  Size  Location     Type
  8892 ;;                  1    wreg      void 
  8893 ;; Registers used:
  8894 ;;		wreg, status,2, status,0, pclath, cstack
  8895 ;; Tracked objects:
  8896 ;;		On entry : 0/0
  8897 ;;		On exit  : 0/0
  8898 ;;		Unchanged: 0/0
  8899 ;; Data sizes:     COMMON   BANK0   BANK1   BANK3   BANK2
  8900 ;;      Params:         0       0       0       0       0
  8901 ;;      Locals:         0       0       0       0       0
  8902 ;;      Temps:          1       0       0       0       0
  8903 ;;      Totals:         1       0       0       0       0
  8904 ;;Total ram usage:        1 bytes
  8905 ;; Hardware stack levels used: 1
  8906 ;; Hardware stack levels required when called: 1
  8907 ;; This function calls:
  8908 ;;		_read_ds1307
  8909 ;; This function is called by:
  8910 ;;		_display_time
  8911 ;;		_log_event
  8912 ;;		_set_time
  8913 ;; This function uses a non-reentrant model
  8914 ;;
  8915                           
  8916     095B                     _get_time:	
  8917                           ;psect for function _get_time
  8918                           
  8919     095B                     l4002:	
  8920                           ;incstack = 0
  8921                           ; Regs used in _get_time: [wreg+status,2+status,0+pclath+cstack]
  8922                           
  8923                           
  8924                           ;car_black_box_def.c: 25:     clock_reg[0] = read_ds1307(0x02);
  8925     095B  3002               	movlw	2
  8926     095C  160A  118A  2410  120A  158A  	fcall	_read_ds1307
  8927     0961  1283               	bcf	3,5	;RP0=0, select bank0
  8928     0962  1303               	bcf	3,6	;RP1=0, select bank0
  8929     0963  00D8               	movwf	_clock_reg
  8930                           
  8931                           ;car_black_box_def.c: 26:     clock_reg[1] = read_ds1307(0x01);
  8932     0964  3001               	movlw	1
  8933     0965  160A  118A  2410  120A  158A  	fcall	_read_ds1307
  8934     096A  1283               	bcf	3,5	;RP0=0, select bank0
  8935     096B  1303               	bcf	3,6	;RP1=0, select bank0
  8936     096C  00D9               	movwf	_clock_reg+1
  8937                           
  8938                           ;car_black_box_def.c: 27:     clock_reg[2] = read_ds1307(0x00);
  8939     096D  3000               	movlw	0
  8940     096E  160A  118A  2410  120A  158A  	fcall	_read_ds1307
  8941     0973  1283               	bcf	3,5	;RP0=0, select bank0
  8942     0974  1303               	bcf	3,6	;RP1=0, select bank0
  8943     0975  00DA               	movwf	_clock_reg+2
  8944     0976                     l4004:
  8945                           
  8946                           ;car_black_box_def.c: 31:     time[0] = ((clock_reg[0] >> 4) & 0x03) + '0';
  8947     0976  0858               	movf	_clock_reg,w
  8948     0977  00F6               	movwf	??_get_time
  8949     0978  3004               	movlw	4
  8950     0979                     u4095:
  8951     0979  1003               	clrc
  8952     097A  0CF6               	rrf	??_get_time,f
  8953     097B  3EFF               	addlw	-1
  8954     097C  1D03               	skipz
  8955     097D  2979               	goto	u4095
  8956     097E  0876               	movf	??_get_time,w
  8957     097F  3903               	andlw	3
  8958     0980  3E30               	addlw	48
  8959     0981  1683               	bsf	3,5	;RP0=1, select bank1
  8960     0982  1303               	bcf	3,6	;RP1=0, select bank1
  8961     0983  00B2               	movwf	_time^(0+128)
  8962     0984                     l4006:
  8963                           
  8964                           ;car_black_box_def.c: 32:     time[1] = (clock_reg[0] & 0x0F) + '0';
  8965     0984  1283               	bcf	3,5	;RP0=0, select bank0
  8966     0985  1303               	bcf	3,6	;RP1=0, select bank0
  8967     0986  0858               	movf	_clock_reg,w
  8968     0987  390F               	andlw	15
  8969     0988  3E30               	addlw	48
  8970     0989  1683               	bsf	3,5	;RP0=1, select bank1
  8971     098A  1303               	bcf	3,6	;RP1=0, select bank1
  8972     098B  00B3               	movwf	(_time^(0+128)+1)
  8973     098C                     l4008:
  8974                           
  8975                           ;car_black_box_def.c: 35:     time[2] = ((clock_reg[1] >> 4) & 0x07) + '0';
  8976     098C  1283               	bcf	3,5	;RP0=0, select bank0
  8977     098D  1303               	bcf	3,6	;RP1=0, select bank0
  8978     098E  0859               	movf	_clock_reg+1,w
  8979     098F  00F6               	movwf	??_get_time
  8980     0990  3004               	movlw	4
  8981     0991                     u4105:
  8982     0991  1003               	clrc
  8983     0992  0CF6               	rrf	??_get_time,f
  8984     0993  3EFF               	addlw	-1
  8985     0994  1D03               	skipz
  8986     0995  2991               	goto	u4105
  8987     0996  0876               	movf	??_get_time,w
  8988     0997  3907               	andlw	7
  8989     0998  3E30               	addlw	48
  8990     0999  1683               	bsf	3,5	;RP0=1, select bank1
  8991     099A  1303               	bcf	3,6	;RP1=0, select bank1
  8992     099B  00B4               	movwf	(_time^(0+128)+2)
  8993     099C                     l4010:
  8994                           
  8995                           ;car_black_box_def.c: 36:     time[3] = (clock_reg[1] & 0x0F) + '0';
  8996     099C  1283               	bcf	3,5	;RP0=0, select bank0
  8997     099D  1303               	bcf	3,6	;RP1=0, select bank0
  8998     099E  0859               	movf	_clock_reg+1,w
  8999     099F  390F               	andlw	15
  9000     09A0  3E30               	addlw	48
  9001     09A1  1683               	bsf	3,5	;RP0=1, select bank1
  9002     09A2  1303               	bcf	3,6	;RP1=0, select bank1
  9003     09A3  00B5               	movwf	(_time^(0+128)+3)
  9004     09A4                     l4012:
  9005                           
  9006                           ;car_black_box_def.c: 39:     time[4] = ((clock_reg[2] >> 4) & 0x07) + '0';
  9007     09A4  1283               	bcf	3,5	;RP0=0, select bank0
  9008     09A5  1303               	bcf	3,6	;RP1=0, select bank0
  9009     09A6  085A               	movf	_clock_reg+2,w
  9010     09A7  00F6               	movwf	??_get_time
  9011     09A8  3004               	movlw	4
  9012     09A9                     u4115:
  9013     09A9  1003               	clrc
  9014     09AA  0CF6               	rrf	??_get_time,f
  9015     09AB  3EFF               	addlw	-1
  9016     09AC  1D03               	skipz
  9017     09AD  29A9               	goto	u4115
  9018     09AE  0876               	movf	??_get_time,w
  9019     09AF  3907               	andlw	7
  9020     09B0  3E30               	addlw	48
  9021     09B1  1683               	bsf	3,5	;RP0=1, select bank1
  9022     09B2  1303               	bcf	3,6	;RP1=0, select bank1
  9023     09B3  00B6               	movwf	(_time^(0+128)+4)
  9024     09B4                     l4014:
  9025                           
  9026                           ;car_black_box_def.c: 40:     time[5] = (clock_reg[2] & 0x0F) + '0';
  9027     09B4  1283               	bcf	3,5	;RP0=0, select bank0
  9028     09B5  1303               	bcf	3,6	;RP1=0, select bank0
  9029     09B6  085A               	movf	_clock_reg+2,w
  9030     09B7  390F               	andlw	15
  9031     09B8  3E30               	addlw	48
  9032     09B9  1683               	bsf	3,5	;RP0=1, select bank1
  9033     09BA  1303               	bcf	3,6	;RP1=0, select bank1
  9034     09BB  00B7               	movwf	(_time^(0+128)+5)
  9035     09BC                     l4016:
  9036                           
  9037                           ;car_black_box_def.c: 41:     time[6] = '\0';
  9038     09BC  01B8               	clrf	(_time^(0+128)+6)
  9039     09BD                     l365:
  9040     09BD  0008               	return
  9041     09BE                     __end_of_get_time:
  9042                           
  9043                           	psect	text34
  9044     1410                     __ptext34:	
  9045 ;; *************** function _read_ds1307 *****************
  9046 ;; Defined at:
  9047 ;;		line 14 in file "ds1307.c"
  9048 ;; Parameters:    Size  Location     Type
  9049 ;;  addr            1    wreg     unsigned char 
  9050 ;; Auto vars:     Size  Location     Type
  9051 ;;  addr            1    4[COMMON] unsigned char 
  9052 ;;  data            1    5[COMMON] unsigned char 
  9053 ;; Return value:  Size  Location     Type
  9054 ;;                  1    wreg      unsigned char 
  9055 ;; Registers used:
  9056 ;;		wreg, status,2, status,0, pclath, cstack
  9057 ;; Tracked objects:
  9058 ;;		On entry : 0/0
  9059 ;;		On exit  : 0/0
  9060 ;;		Unchanged: 0/0
  9061 ;; Data sizes:     COMMON   BANK0   BANK1   BANK3   BANK2
  9062 ;;      Params:         0       0       0       0       0
  9063 ;;      Locals:         2       0       0       0       0
  9064 ;;      Temps:          0       0       0       0       0
  9065 ;;      Totals:         2       0       0       0       0
  9066 ;;Total ram usage:        2 bytes
  9067 ;; Hardware stack levels used: 1
  9068 ;; Hardware stack levels required when called: 1
  9069 ;; This function calls:
  9070 ;;		_i2c_read
  9071 ;;		_i2c_rep_start
  9072 ;;		_i2c_start
  9073 ;;		_i2c_stop
  9074 ;;		_i2c_write
  9075 ;; This function is called by:
  9076 ;;		_init_ds1307
  9077 ;;		_get_time
  9078 ;; This function uses a non-reentrant model
  9079 ;;
  9080                           
  9081     1410                     _read_ds1307:	
  9082                           ;psect for function _read_ds1307
  9083                           
  9084                           
  9085                           ;incstack = 0
  9086                           ; Regs used in _read_ds1307: [wreg+status,2+status,0+pclath+cstack]
  9087                           ;read_ds1307@addr stored from wreg
  9088     1410  00F4               	movwf	read_ds1307@addr
  9089     1411                     l3956:
  9090                           
  9091                           ;ds1307.c: 14: unsigned char read_ds1307(unsigned char addr);ds1307.c: 15: {;ds1307.c: 1
      +                          6:     unsigned char data;;ds1307.c: 18:     i2c_start();
  9092     1411  160A  118A  221B  160A  118A  	fcall	_i2c_start
  9093                           
  9094                           ;ds1307.c: 19:     i2c_write(0b11010000);
  9095     1416  30D0               	movlw	208
  9096     1417  160A  118A  222D  160A  118A  	fcall	_i2c_write
  9097                           
  9098                           ;ds1307.c: 20:     i2c_write(addr);
  9099     141C  0874               	movf	read_ds1307@addr,w
  9100     141D  160A  118A  222D  160A  118A  	fcall	_i2c_write
  9101                           
  9102                           ;ds1307.c: 21:     i2c_rep_start();
  9103     1422  160A  118A  2238  160A  118A  	fcall	_i2c_rep_start
  9104                           
  9105                           ;ds1307.c: 22:     i2c_write(0b11010001);
  9106     1427  30D1               	movlw	209
  9107     1428  160A  118A  222D  160A  118A  	fcall	_i2c_write
  9108                           
  9109                           ;ds1307.c: 23:     data = i2c_read(0);
  9110     142D  3000               	movlw	0
  9111     142E  160A  118A  232D  160A  118A  	fcall	_i2c_read
  9112     1433  00F5               	movwf	read_ds1307@data
  9113                           
  9114                           ;ds1307.c: 24:     i2c_stop();
  9115     1434  160A  118A  2224  160A  118A  	fcall	_i2c_stop
  9116     1439                     l3958:
  9117                           
  9118                           ;ds1307.c: 26:     return data;
  9119     1439  0875               	movf	read_ds1307@data,w
  9120     143A                     l232:
  9121     143A  0008               	return
  9122     143B                     __end_of_read_ds1307:
  9123                           
  9124                           	psect	text35
  9125     1238                     __ptext35:	
  9126 ;; *************** function _i2c_rep_start *****************
  9127 ;; Defined at:
  9128 ;;		line 28 in file "i2c.c"
  9129 ;; Parameters:    Size  Location     Type
  9130 ;;		None
  9131 ;; Auto vars:     Size  Location     Type
  9132 ;;		None
  9133 ;; Return value:  Size  Location     Type
  9134 ;;                  1    wreg      void 
  9135 ;; Registers used:
  9136 ;;		wreg, status,2, status,0, pclath, cstack
  9137 ;; Tracked objects:
  9138 ;;		On entry : 0/0
  9139 ;;		On exit  : 0/0
  9140 ;;		Unchanged: 0/0
  9141 ;; Data sizes:     COMMON   BANK0   BANK1   BANK3   BANK2
  9142 ;;      Params:         0       0       0       0       0
  9143 ;;      Locals:         0       0       0       0       0
  9144 ;;      Temps:          0       0       0       0       0
  9145 ;;      Totals:         0       0       0       0       0
  9146 ;;Total ram usage:        0 bytes
  9147 ;; Hardware stack levels used: 1
  9148 ;; Hardware stack levels required when called: 1
  9149 ;; This function calls:
  9150 ;;		_i2c_start
  9151 ;;		_i2c_stop
  9152 ;; This function is called by:
  9153 ;;		_read_ds1307
  9154 ;;		_read_external_eeprom
  9155 ;; This function uses a non-reentrant model
  9156 ;;
  9157                           
  9158     1238                     _i2c_rep_start:	
  9159                           ;psect for function _i2c_rep_start
  9160                           
  9161     1238                     l3932:	
  9162                           ;incstack = 0
  9163                           ; Regs used in _i2c_rep_start: [wreg+status,2+status,0+pclath+cstack]
  9164                           
  9165                           
  9166                           ;i2c.c: 30:     i2c_stop();
  9167     1238  160A  118A  2224  160A  118A  	fcall	_i2c_stop
  9168                           
  9169                           ;i2c.c: 31:     i2c_start();
  9170     123D  160A  118A  221B  160A  118A  	fcall	_i2c_start
  9171     1242                     l276:
  9172     1242  0008               	return
  9173     1243                     __end_of_i2c_rep_start:
  9174                           
  9175                           	psect	text36
  9176     132D                     __ptext36:	
  9177 ;; *************** function _i2c_read *****************
  9178 ;; Defined at:
  9179 ;;		line 41 in file "i2c.c"
  9180 ;; Parameters:    Size  Location     Type
  9181 ;;  ack             1    wreg     unsigned char 
  9182 ;; Auto vars:     Size  Location     Type
  9183 ;;  ack             1    2[COMMON] unsigned char 
  9184 ;;  data            1    3[COMMON] unsigned char 
  9185 ;; Return value:  Size  Location     Type
  9186 ;;                  1    wreg      unsigned char 
  9187 ;; Registers used:
  9188 ;;		wreg, status,2, status,0, pclath, cstack
  9189 ;; Tracked objects:
  9190 ;;		On entry : 0/0
  9191 ;;		On exit  : 0/0
  9192 ;;		Unchanged: 0/0
  9193 ;; Data sizes:     COMMON   BANK0   BANK1   BANK3   BANK2
  9194 ;;      Params:         0       0       0       0       0
  9195 ;;      Locals:         2       0       0       0       0
  9196 ;;      Temps:          0       0       0       0       0
  9197 ;;      Totals:         2       0       0       0       0
  9198 ;;Total ram usage:        2 bytes
  9199 ;; Hardware stack levels used: 1
  9200 ;; Hardware stack levels required when called: 1
  9201 ;; This function calls:
  9202 ;;		_i2c_wait_for_idle
  9203 ;; This function is called by:
  9204 ;;		_read_ds1307
  9205 ;;		_read_external_eeprom
  9206 ;; This function uses a non-reentrant model
  9207 ;;
  9208                           
  9209     132D                     _i2c_read:	
  9210                           ;psect for function _i2c_read
  9211                           
  9212                           
  9213                           ;incstack = 0
  9214                           ; Regs used in _i2c_read: [wreg+status,2+status,0+pclath+cstack]
  9215                           ;i2c_read@ack stored from wreg
  9216     132D  00F2               	movwf	i2c_read@ack
  9217     132E                     l3934:
  9218                           
  9219                           ;i2c.c: 41: unsigned char i2c_read(unsigned char ack);i2c.c: 42: {;i2c.c: 43:     unsign
      +                          ed char data;;i2c.c: 45:     i2c_wait_for_idle();
  9220     132E  160A  118A  2259  160A  118A  	fcall	_i2c_wait_for_idle
  9221     1333                     l3936:
  9222                           
  9223                           ;i2c.c: 46:     RCEN = 1;
  9224     1333  1683               	bsf	3,5	;RP0=1, select bank1
  9225     1334  1303               	bcf	3,6	;RP1=0, select bank1
  9226     1335  1591               	bsf	17,3	;volatile
  9227                           
  9228                           ;i2c.c: 48:     i2c_wait_for_idle();
  9229     1336  160A  118A  2259  160A  118A  	fcall	_i2c_wait_for_idle
  9230     133B                     l3938:
  9231                           
  9232                           ;i2c.c: 49:     data = SSPBUF;
  9233     133B  1283               	bcf	3,5	;RP0=0, select bank0
  9234     133C  1303               	bcf	3,6	;RP1=0, select bank0
  9235     133D  0813               	movf	19,w	;volatile
  9236     133E  00F3               	movwf	i2c_read@data
  9237     133F                     l3940:
  9238                           
  9239                           ;i2c.c: 51:     if (ack == 1)
  9240     133F  0372               	decf	i2c_read@ack,w
  9241     1340  1D03               	btfss	3,2
  9242     1341  2B43               	goto	u4041
  9243     1342  2B44               	goto	u4040
  9244     1343                     u4041:
  9245     1343  2B48               	goto	l282
  9246     1344                     u4040:
  9247     1344                     l3942:
  9248                           
  9249                           ;i2c.c: 52:     {;i2c.c: 53:         ACKDT = 1;
  9250     1344  1683               	bsf	3,5	;RP0=1, select bank1
  9251     1345  1303               	bcf	3,6	;RP1=0, select bank1
  9252     1346  1691               	bsf	17,5	;volatile
  9253                           
  9254                           ;i2c.c: 54:     }
  9255     1347  2B4B               	goto	l283
  9256     1348                     l282:	
  9257                           ;i2c.c: 55:     else
  9258                           
  9259                           
  9260                           ;i2c.c: 56:     {;i2c.c: 57:         ACKDT = 0;
  9261     1348  1683               	bsf	3,5	;RP0=1, select bank1
  9262     1349  1303               	bcf	3,6	;RP1=0, select bank1
  9263     134A  1291               	bcf	17,5	;volatile
  9264     134B                     l283:	
  9265                           ;i2c.c: 58:     }
  9266                           
  9267                           
  9268                           ;i2c.c: 60:     ACKEN = 1;
  9269     134B  1611               	bsf	17,4	;volatile
  9270     134C                     l3944:
  9271                           
  9272                           ;i2c.c: 62:     return data;
  9273     134C  0873               	movf	i2c_read@data,w
  9274     134D                     l284:
  9275     134D  0008               	return
  9276     134E                     __end_of_i2c_read:
  9277                           
  9278                           	psect	text37
  9279     16F8                     __ptext37:	
  9280 ;; *************** function ___awmod *****************
  9281 ;; Defined at:
  9282 ;;		line 5 in file "C:\Program Files\Microchip\xc8\v3.10\pic\sources\c99\common\awmod.c"
  9283 ;; Parameters:    Size  Location     Type
  9284 ;;  divisor         2    2[COMMON] int 
  9285 ;;  dividend        2    4[COMMON] int 
  9286 ;; Auto vars:     Size  Location     Type
  9287 ;;  sign            1    7[COMMON] unsigned char 
  9288 ;;  counter         1    6[COMMON] unsigned char 
  9289 ;; Return value:  Size  Location     Type
  9290 ;;                  2    2[COMMON] int 
  9291 ;; Registers used:
  9292 ;;		wreg, status,2, status,0
  9293 ;; Tracked objects:
  9294 ;;		On entry : 0/0
  9295 ;;		On exit  : 0/0
  9296 ;;		Unchanged: 0/0
  9297 ;; Data sizes:     COMMON   BANK0   BANK1   BANK3   BANK2
  9298 ;;      Params:         4       0       0       0       0
  9299 ;;      Locals:         2       0       0       0       0
  9300 ;;      Temps:          0       0       0       0       0
  9301 ;;      Totals:         6       0       0       0       0
  9302 ;;Total ram usage:        6 bytes
  9303 ;; Hardware stack levels used: 1
  9304 ;; Hardware stack levels required when called: 1
  9305 ;; This function calls:
  9306 ;;		Nothing
  9307 ;; This function is called by:
  9308 ;;		_display_dashboard
  9309 ;;		_log_event
  9310 ;;		_login
  9311 ;;		_save_time
  9312 ;;		_set_time
  9313 ;; This function uses a non-reentrant model
  9314 ;;
  9315                           
  9316     16F8                     ___awmod:	
  9317                           ;psect for function ___awmod
  9318                           
  9319     16F8                     l2754:	
  9320                           ;incstack = 0
  9321                           ; Regs used in ___awmod: [wreg+status,2+status,0]
  9322                           
  9323     16F8  01F7               	clrf	___awmod@sign
  9324     16F9                     l2756:
  9325     16F9  1FF5               	btfss	___awmod@dividend+1,7
  9326     16FA  2EFC               	goto	u2321
  9327     16FB  2EFD               	goto	u2320
  9328     16FC                     u2321:
  9329     16FC  2F04               	goto	l2762
  9330     16FD                     u2320:
  9331     16FD                     l2758:
  9332     16FD  09F4               	comf	___awmod@dividend,f
  9333     16FE  09F5               	comf	___awmod@dividend+1,f
  9334     16FF  0AF4               	incf	___awmod@dividend,f
  9335     1700  1903               	skipnz
  9336     1701  0AF5               	incf	___awmod@dividend+1,f
  9337     1702                     l2760:
  9338     1702  3001               	movlw	1
  9339     1703  00F7               	movwf	___awmod@sign
  9340     1704                     l2762:
  9341     1704  1FF3               	btfss	___awmod@divisor+1,7
  9342     1705  2F07               	goto	u2331
  9343     1706  2F08               	goto	u2330
  9344     1707                     u2331:
  9345     1707  2F0D               	goto	l2766
  9346     1708                     u2330:
  9347     1708                     l2764:
  9348     1708  09F2               	comf	___awmod@divisor,f
  9349     1709  09F3               	comf	___awmod@divisor+1,f
  9350     170A  0AF2               	incf	___awmod@divisor,f
  9351     170B  1903               	skipnz
  9352     170C  0AF3               	incf	___awmod@divisor+1,f
  9353     170D                     l2766:
  9354     170D  0872               	movf	___awmod@divisor,w
  9355     170E  0473               	iorwf	___awmod@divisor+1,w
  9356     170F  1903               	btfsc	3,2
  9357     1710  2F12               	goto	u2341
  9358     1711  2F13               	goto	u2340
  9359     1712                     u2341:
  9360     1712  2F40               	goto	l2784
  9361     1713                     u2340:
  9362     1713                     l2768:
  9363     1713  3001               	movlw	1
  9364     1714  00F6               	movwf	___awmod@counter
  9365     1715  2F1F               	goto	l2774
  9366     1716                     l2770:
  9367     1716  3001               	movlw	1
  9368     1717                     u2355:
  9369     1717  1003               	clrc
  9370     1718  0DF2               	rlf	___awmod@divisor,f
  9371     1719  0DF3               	rlf	___awmod@divisor+1,f
  9372     171A  3EFF               	addlw	-1
  9373     171B  1D03               	skipz
  9374     171C  2F17               	goto	u2355
  9375     171D                     l2772:
  9376     171D  3001               	movlw	1
  9377     171E  07F6               	addwf	___awmod@counter,f
  9378     171F                     l2774:
  9379     171F  1FF3               	btfss	___awmod@divisor+1,7
  9380     1720  2F22               	goto	u2361
  9381     1721  2F23               	goto	u2360
  9382     1722                     u2361:
  9383     1722  2F16               	goto	l2770
  9384     1723                     u2360:
  9385     1723                     l2776:
  9386     1723  0873               	movf	___awmod@divisor+1,w
  9387     1724  0275               	subwf	___awmod@dividend+1,w
  9388     1725  1D03               	skipz
  9389     1726  2F29               	goto	u2375
  9390     1727  0872               	movf	___awmod@divisor,w
  9391     1728  0274               	subwf	___awmod@dividend,w
  9392     1729                     u2375:
  9393     1729  1C03               	skipc
  9394     172A  2F2C               	goto	u2371
  9395     172B  2F2D               	goto	u2370
  9396     172C                     u2371:
  9397     172C  2F33               	goto	l2780
  9398     172D                     u2370:
  9399     172D                     l2778:
  9400     172D  0872               	movf	___awmod@divisor,w
  9401     172E  02F4               	subwf	___awmod@dividend,f
  9402     172F  0873               	movf	___awmod@divisor+1,w
  9403     1730  1C03               	skipc
  9404     1731  03F5               	decf	___awmod@dividend+1,f
  9405     1732  02F5               	subwf	___awmod@dividend+1,f
  9406     1733                     l2780:
  9407     1733  3001               	movlw	1
  9408     1734                     u2385:
  9409     1734  1003               	clrc
  9410     1735  0CF3               	rrf	___awmod@divisor+1,f
  9411     1736  0CF2               	rrf	___awmod@divisor,f
  9412     1737  3EFF               	addlw	-1
  9413     1738  1D03               	skipz
  9414     1739  2F34               	goto	u2385
  9415     173A                     l2782:
  9416     173A  3001               	movlw	1
  9417     173B  02F6               	subwf	___awmod@counter,f
  9418     173C  1D03               	btfss	3,2
  9419     173D  2F3F               	goto	u2391
  9420     173E  2F40               	goto	u2390
  9421     173F                     u2391:
  9422     173F  2F23               	goto	l2776
  9423     1740                     u2390:
  9424     1740                     l2784:
  9425     1740  0877               	movf	___awmod@sign,w
  9426     1741  1903               	btfsc	3,2
  9427     1742  2F44               	goto	u2401
  9428     1743  2F45               	goto	u2400
  9429     1744                     u2401:
  9430     1744  2F4A               	goto	l2788
  9431     1745                     u2400:
  9432     1745                     l2786:
  9433     1745  09F4               	comf	___awmod@dividend,f
  9434     1746  09F5               	comf	___awmod@dividend+1,f
  9435     1747  0AF4               	incf	___awmod@dividend,f
  9436     1748  1903               	skipnz
  9437     1749  0AF5               	incf	___awmod@dividend+1,f
  9438     174A                     l2788:
  9439     174A  0875               	movf	___awmod@dividend+1,w
  9440     174B  00F3               	movwf	?___awmod+1
  9441     174C  0874               	movf	___awmod@dividend,w
  9442     174D  00F2               	movwf	?___awmod
  9443     174E                     l881:
  9444     174E  0008               	return
  9445     174F                     __end_of___awmod:
  9446                           
  9447                           	psect	text38
  9448     08F8                     __ptext38:	
  9449 ;; *************** function ___awdiv *****************
  9450 ;; Defined at:
  9451 ;;		line 5 in file "C:\Program Files\Microchip\xc8\v3.10\pic\sources\c99\common\awdiv.c"
  9452 ;; Parameters:    Size  Location     Type
  9453 ;;  divisor         2    2[COMMON] int 
  9454 ;;  dividend        2    4[COMMON] int 
  9455 ;; Auto vars:     Size  Location     Type
  9456 ;;  quotient        2    8[COMMON] int 
  9457 ;;  sign            1    7[COMMON] unsigned char 
  9458 ;;  counter         1    6[COMMON] unsigned char 
  9459 ;; Return value:  Size  Location     Type
  9460 ;;                  2    2[COMMON] int 
  9461 ;; Registers used:
  9462 ;;		wreg, status,2, status,0
  9463 ;; Tracked objects:
  9464 ;;		On entry : 0/0
  9465 ;;		On exit  : 0/0
  9466 ;;		Unchanged: 0/0
  9467 ;; Data sizes:     COMMON   BANK0   BANK1   BANK3   BANK2
  9468 ;;      Params:         4       0       0       0       0
  9469 ;;      Locals:         4       0       0       0       0
  9470 ;;      Temps:          0       0       0       0       0
  9471 ;;      Totals:         8       0       0       0       0
  9472 ;;Total ram usage:        8 bytes
  9473 ;; Hardware stack levels used: 1
  9474 ;; Hardware stack levels required when called: 1
  9475 ;; This function calls:
  9476 ;;		Nothing
  9477 ;; This function is called by:
  9478 ;;		_display_dashboard
  9479 ;;		_log_event
  9480 ;;		_login
  9481 ;;		_save_time
  9482 ;;		_set_time
  9483 ;; This function uses a non-reentrant model
  9484 ;;
  9485                           
  9486     08F8                     ___awdiv:	
  9487                           ;psect for function ___awdiv
  9488                           
  9489     08F8                     l2710:	
  9490                           ;incstack = 0
  9491                           ; Regs used in ___awdiv: [wreg+status,2+status,0]
  9492                           
  9493     08F8  01F7               	clrf	___awdiv@sign
  9494     08F9                     l2712:
  9495     08F9  1FF3               	btfss	___awdiv@divisor+1,7
  9496     08FA  28FC               	goto	u2221
  9497     08FB  28FD               	goto	u2220
  9498     08FC                     u2221:
  9499     08FC  2904               	goto	l2718
  9500     08FD                     u2220:
  9501     08FD                     l2714:
  9502     08FD  09F2               	comf	___awdiv@divisor,f
  9503     08FE  09F3               	comf	___awdiv@divisor+1,f
  9504     08FF  0AF2               	incf	___awdiv@divisor,f
  9505     0900  1903               	skipnz
  9506     0901  0AF3               	incf	___awdiv@divisor+1,f
  9507     0902                     l2716:
  9508     0902  3001               	movlw	1
  9509     0903  00F7               	movwf	___awdiv@sign
  9510     0904                     l2718:
  9511     0904  1FF5               	btfss	___awdiv@dividend+1,7
  9512     0905  2907               	goto	u2231
  9513     0906  2908               	goto	u2230
  9514     0907                     u2231:
  9515     0907  290F               	goto	l2724
  9516     0908                     u2230:
  9517     0908                     l2720:
  9518     0908  09F4               	comf	___awdiv@dividend,f
  9519     0909  09F5               	comf	___awdiv@dividend+1,f
  9520     090A  0AF4               	incf	___awdiv@dividend,f
  9521     090B  1903               	skipnz
  9522     090C  0AF5               	incf	___awdiv@dividend+1,f
  9523     090D                     l2722:
  9524     090D  3001               	movlw	1
  9525     090E  06F7               	xorwf	___awdiv@sign,f
  9526     090F                     l2724:
  9527     090F  01F8               	clrf	___awdiv@quotient
  9528     0910  01F9               	clrf	___awdiv@quotient+1
  9529     0911                     l2726:
  9530     0911  0872               	movf	___awdiv@divisor,w
  9531     0912  0473               	iorwf	___awdiv@divisor+1,w
  9532     0913  1903               	btfsc	3,2
  9533     0914  2916               	goto	u2241
  9534     0915  2917               	goto	u2240
  9535     0916                     u2241:
  9536     0916  294C               	goto	l2746
  9537     0917                     u2240:
  9538     0917                     l2728:
  9539     0917  3001               	movlw	1
  9540     0918  00F6               	movwf	___awdiv@counter
  9541     0919  2923               	goto	l2734
  9542     091A                     l2730:
  9543     091A  3001               	movlw	1
  9544     091B                     u2255:
  9545     091B  1003               	clrc
  9546     091C  0DF2               	rlf	___awdiv@divisor,f
  9547     091D  0DF3               	rlf	___awdiv@divisor+1,f
  9548     091E  3EFF               	addlw	-1
  9549     091F  1D03               	skipz
  9550     0920  291B               	goto	u2255
  9551     0921                     l2732:
  9552     0921  3001               	movlw	1
  9553     0922  07F6               	addwf	___awdiv@counter,f
  9554     0923                     l2734:
  9555     0923  1FF3               	btfss	___awdiv@divisor+1,7
  9556     0924  2926               	goto	u2261
  9557     0925  2927               	goto	u2260
  9558     0926                     u2261:
  9559     0926  291A               	goto	l2730
  9560     0927                     u2260:
  9561     0927                     l2736:
  9562     0927  3001               	movlw	1
  9563     0928                     u2275:
  9564     0928  1003               	clrc
  9565     0929  0DF8               	rlf	___awdiv@quotient,f
  9566     092A  0DF9               	rlf	___awdiv@quotient+1,f
  9567     092B  3EFF               	addlw	-1
  9568     092C  1D03               	skipz
  9569     092D  2928               	goto	u2275
  9570     092E  0873               	movf	___awdiv@divisor+1,w
  9571     092F  0275               	subwf	___awdiv@dividend+1,w
  9572     0930  1D03               	skipz
  9573     0931  2934               	goto	u2285
  9574     0932  0872               	movf	___awdiv@divisor,w
  9575     0933  0274               	subwf	___awdiv@dividend,w
  9576     0934                     u2285:
  9577     0934  1C03               	skipc
  9578     0935  2937               	goto	u2281
  9579     0936  2938               	goto	u2280
  9580     0937                     u2281:
  9581     0937  293F               	goto	l2742
  9582     0938                     u2280:
  9583     0938                     l2738:
  9584     0938  0872               	movf	___awdiv@divisor,w
  9585     0939  02F4               	subwf	___awdiv@dividend,f
  9586     093A  0873               	movf	___awdiv@divisor+1,w
  9587     093B  1C03               	skipc
  9588     093C  03F5               	decf	___awdiv@dividend+1,f
  9589     093D  02F5               	subwf	___awdiv@dividend+1,f
  9590     093E                     l2740:
  9591     093E  1478               	bsf	___awdiv@quotient,0
  9592     093F                     l2742:
  9593     093F  3001               	movlw	1
  9594     0940                     u2295:
  9595     0940  1003               	clrc
  9596     0941  0CF3               	rrf	___awdiv@divisor+1,f
  9597     0942  0CF2               	rrf	___awdiv@divisor,f
  9598     0943  3EFF               	addlw	-1
  9599     0944  1D03               	skipz
  9600     0945  2940               	goto	u2295
  9601     0946                     l2744:
  9602     0946  3001               	movlw	1
  9603     0947  02F6               	subwf	___awdiv@counter,f
  9604     0948  1D03               	btfss	3,2
  9605     0949  294B               	goto	u2301
  9606     094A  294C               	goto	u2300
  9607     094B                     u2301:
  9608     094B  2927               	goto	l2736
  9609     094C                     u2300:
  9610     094C                     l2746:
  9611     094C  0877               	movf	___awdiv@sign,w
  9612     094D  1903               	btfsc	3,2
  9613     094E  2950               	goto	u2311
  9614     094F  2951               	goto	u2310
  9615     0950                     u2311:
  9616     0950  2956               	goto	l2750
  9617     0951                     u2310:
  9618     0951                     l2748:
  9619     0951  09F8               	comf	___awdiv@quotient,f
  9620     0952  09F9               	comf	___awdiv@quotient+1,f
  9621     0953  0AF8               	incf	___awdiv@quotient,f
  9622     0954  1903               	skipnz
  9623     0955  0AF9               	incf	___awdiv@quotient+1,f
  9624     0956                     l2750:
  9625     0956  0879               	movf	___awdiv@quotient+1,w
  9626     0957  00F3               	movwf	?___awdiv+1
  9627     0958  0878               	movf	___awdiv@quotient,w
  9628     0959  00F2               	movwf	?___awdiv
  9629     095A                     l868:
  9630     095A  0008               	return
  9631     095B                     __end_of___awdiv:
  9632                           
  9633                           	psect	text39
  9634     136F                     __ptext39:	
  9635 ;; *************** function _clear_log *****************
  9636 ;; Defined at:
  9637 ;;		line 355 in file "car_black_box_def.c"
  9638 ;; Parameters:    Size  Location     Type
  9639 ;;  reset_flag      1    wreg     unsigned char 
  9640 ;; Auto vars:     Size  Location     Type
  9641 ;;  reset_flag      1    9[COMMON] unsigned char 
  9642 ;; Return value:  Size  Location     Type
  9643 ;;                  1    wreg      void 
  9644 ;; Registers used:
  9645 ;;		wreg, fsr0l, fsr0h, status,2, status,0, pclath, btemp1, cstack
  9646 ;; Tracked objects:
  9647 ;;		On entry : 0/0
  9648 ;;		On exit  : 0/0
  9649 ;;		Unchanged: 0/0
  9650 ;; Data sizes:     COMMON   BANK0   BANK1   BANK3   BANK2
  9651 ;;      Params:         0       0       0       0       0
  9652 ;;      Locals:         1       0       0       0       0
  9653 ;;      Temps:          0       3       0       0       0
  9654 ;;      Totals:         1       3       0       0       0
  9655 ;;Total ram usage:        4 bytes
  9656 ;; Hardware stack levels used: 1
  9657 ;; Hardware stack levels required when called: 2
  9658 ;; This function calls:
  9659 ;;		_clcd_print
  9660 ;; This function is called by:
  9661 ;;		_main
  9662 ;; This function uses a non-reentrant model
  9663 ;;
  9664                           
  9665     136F                     _clear_log:	
  9666                           ;psect for function _clear_log
  9667                           
  9668                           
  9669                           ;incstack = 0
  9670                           ; Regs used in _clear_log: [wreg-fsr0h+status,2+status,0+pclath+btemp1+cstack]
  9671                           ;clear_log@reset_flag stored from wreg
  9672     136F  00F9               	movwf	clear_log@reset_flag
  9673     1370                     l4412:
  9674                           
  9675                           ;car_black_box_def.c: 355: void clear_log(unsigned char reset_flag);car_black_box_def.c:
      +                           356: {;car_black_box_def.c: 357:     if (reset_flag == 0x44)
  9676     1370  3044               	movlw	68
  9677     1371  0679               	xorwf	clear_log@reset_flag,w
  9678     1372  1D03               	btfss	3,2
  9679     1373  2B75               	goto	u4631
  9680     1374  2B76               	goto	u4630
  9681     1375                     u4631:
  9682     1375  2B94               	goto	l447
  9683     1376                     u4630:
  9684     1376                     l4414:
  9685                           
  9686                           ;car_black_box_def.c: 358:     {;car_black_box_def.c: 360:         log_flag = 0;
  9687     1376  1283               	bcf	3,5	;RP0=0, select bank0
  9688     1377  1303               	bcf	3,6	;RP1=0, select bank0
  9689     1378  01EE               	clrf	_log_flag
  9690                           
  9691                           ;car_black_box_def.c: 361:         log_count = 0;
  9692     1379  01ED               	clrf	_log_count
  9693                           
  9694                           ;car_black_box_def.c: 362:         pos = 0;
  9695     137A  01FA               	clrf	_pos
  9696     137B                     l4416:
  9697                           
  9698                           ;car_black_box_def.c: 364:         clcd_print("Logs cleared", (0x80 + 0));
  9699     137B  30E3               	movlw	low (STR_26| (0+32768))
  9700     137C  00F6               	movwf	clcd_print@str
  9701     137D  3090               	movlw	high (STR_26| (0+32768))
  9702     137E  00F7               	movwf	clcd_print@str+1
  9703     137F  3080               	movlw	128
  9704     1380  00F8               	movwf	clcd_print@addr
  9705     1381  160A  118A  2494  160A  118A  	fcall	_clcd_print
  9706     1386                     l4418:
  9707                           
  9708                           ;car_black_box_def.c: 365:         _delay((unsigned long)((2000)*(20000000/4000.0)));
  9709     1386  3033               	movlw	51
  9710     1387  1283               	bcf	3,5	;RP0=0, select bank0
  9711     1388  1303               	bcf	3,6	;RP1=0, select bank0
  9712     1389  00A2               	movwf	??_clear_log+2
  9713     138A  30BB               	movlw	187
  9714     138B  00A1               	movwf	??_clear_log+1
  9715     138C  30DF               	movlw	223
  9716     138D  00A0               	movwf	??_clear_log
  9717     138E                     u5677:
  9718     138E  0BA0               	decfsz	??_clear_log,f
  9719     138F  2B8E               	goto	u5677
  9720     1390  0BA1               	decfsz	??_clear_log+1,f
  9721     1391  2B8E               	goto	u5677
  9722     1392  0BA2               	decfsz	??_clear_log+2,f
  9723     1393  2B8E               	goto	u5677
  9724     1394                     l447:
  9725     1394  0008               	return
  9726     1395                     __end_of_clear_log:
  9727                           
  9728                           	psect	text40
  9729     0D3F                     __ptext40:	
  9730 ;; *************** function _change_passwd *****************
  9731 ;; Defined at:
  9732 ;;		line 593 in file "car_black_box_def.c"
  9733 ;; Parameters:    Size  Location     Type
  9734 ;;  key             1    wreg     unsigned char 
  9735 ;;  reset_flag      1    2[BANK0 ] unsigned char 
  9736 ;; Auto vars:     Size  Location     Type
  9737 ;;  key             1    8[BANK0 ] unsigned char 
  9738 ;; Return value:  Size  Location     Type
  9739 ;;                  1    wreg      unsigned char 
  9740 ;; Registers used:
  9741 ;;		wreg, fsr0l, fsr0h, status,2, status,0, pclath, btemp1, cstack
  9742 ;; Tracked objects:
  9743 ;;		On entry : 0/0
  9744 ;;		On exit  : 0/0
  9745 ;;		Unchanged: 0/0
  9746 ;; Data sizes:     COMMON   BANK0   BANK1   BANK3   BANK2
  9747 ;;      Params:         0       1       0       0       0
  9748 ;;      Locals:         0       3       0       0       0
  9749 ;;      Temps:          0       3       0       0       0
  9750 ;;      Totals:         0       7       0       0       0
  9751 ;;Total ram usage:        7 bytes
  9752 ;; Hardware stack levels used: 1
  9753 ;; Hardware stack levels required when called: 5
  9754 ;; This function calls:
  9755 ;;		_clcd_print
  9756 ;;		_clcd_putch
  9757 ;;		_clcd_write
  9758 ;;		_clear_screen
  9759 ;;		_str_write_ext_eeprom
  9760 ;;		_strncmp
  9761 ;; This function is called by:
  9762 ;;		_main
  9763 ;; This function uses a non-reentrant model
  9764 ;;
  9765                           
  9766     0D3F                     _change_passwd:	
  9767                           ;psect for function _change_passwd
  9768                           
  9769                           
  9770                           ;incstack = 0
  9771                           ; Regs used in _change_passwd: [wreg-fsr0h+status,2+status,0+pclath+btemp1+cstack]
  9772                           ;change_passwd@key stored from wreg
  9773     0D3F  1283               	bcf	3,5	;RP0=0, select bank0
  9774     0D40  1303               	bcf	3,6	;RP1=0, select bank0
  9775     0D41  00A8               	movwf	change_passwd@key
  9776     0D42                     l4592:
  9777                           
  9778                           ;car_black_box_def.c: 593: unsigned char change_passwd(unsigned char key, unsigned char 
      +                          reset_flag);car_black_box_def.c: 594: {;car_black_box_def.c: 595:     static char new_pa
      +                          ss[5], re_enter[5];;car_black_box_def.c: 596:     static unsigned char flag, i;;car_blac
      +                          k_box_def.c: 597:     static unsigned char val;;car_black_box_def.c: 599:     if (reset_
      +                          flag == 0x66)
  9779     0D42  3066               	movlw	102
  9780     0D43  0622               	xorwf	change_passwd@reset_flag,w
  9781     0D44  1D03               	btfss	3,2
  9782     0D45  2D47               	goto	u4941
  9783     0D46  2D48               	goto	u4940
  9784     0D47                     u4941:
  9785     0D47  2D67               	goto	l4606
  9786     0D48                     u4940:
  9787     0D48                     l4594:
  9788                           
  9789                           ;car_black_box_def.c: 600:     {;car_black_box_def.c: 601:         key = 0x3F;
  9790     0D48  303F               	movlw	63
  9791     0D49  00A8               	movwf	change_passwd@key
  9792     0D4A                     l4596:
  9793                           
  9794                           ;car_black_box_def.c: 602:         i = 0;
  9795     0D4A  01E0               	clrf	change_passwd@i
  9796     0D4B                     l4598:
  9797                           
  9798                           ;car_black_box_def.c: 603:         return_time = 5;
  9799     0D4B  3005               	movlw	5
  9800     0D4C  00EB               	movwf	_return_time
  9801                           
  9802                           ;car_black_box_def.c: 605:         flag = 0;
  9803     0D4D  01E1               	clrf	change_passwd@flag
  9804     0D4E                     l4600:
  9805                           
  9806                           ;car_black_box_def.c: 606:         clcd_print("Enter new passwd", (0x80 + 0));
  9807     0D4E  303C               	movlw	low (STR_38| (0+32768))
  9808     0D4F  00F6               	movwf	clcd_print@str
  9809     0D50  3090               	movlw	high (STR_38| (0+32768))
  9810     0D51  00F7               	movwf	clcd_print@str+1
  9811     0D52  3080               	movlw	128
  9812     0D53  00F8               	movwf	clcd_print@addr
  9813     0D54  160A  118A  2494  120A  158A  	fcall	_clcd_print
  9814     0D59                     l4602:
  9815                           
  9816                           ;car_black_box_def.c: 608:         clcd_write((0xC0 + 4), 0);
  9817     0D59  01F2               	clrf	clcd_write@mode
  9818     0D5A  30C4               	movlw	196
  9819     0D5B  160A  118A  230D  120A  158A  	fcall	_clcd_write
  9820     0D60                     l4604:
  9821                           
  9822                           ;car_black_box_def.c: 609:         clcd_write(0x0F, 0);
  9823     0D60  01F2               	clrf	clcd_write@mode
  9824     0D61  300F               	movlw	15
  9825     0D62  160A  118A  230D  120A  158A  	fcall	_clcd_write
  9826     0D67                     l4606:
  9827                           
  9828                           ;car_black_box_def.c: 613:     if (return_time == 0)
  9829     0D67  1283               	bcf	3,5	;RP0=0, select bank0
  9830     0D68  1303               	bcf	3,6	;RP1=0, select bank0
  9831     0D69  086B               	movf	_return_time,w
  9832     0D6A  1D03               	btfss	3,2
  9833     0D6B  2D6D               	goto	u4951
  9834     0D6C  2D6E               	goto	u4950
  9835     0D6D                     u4951:
  9836     0D6D  2D70               	goto	l4612
  9837     0D6E                     u4950:
  9838     0D6E                     l4608:
  9839                           
  9840                           ;car_black_box_def.c: 614:         return 0xF0;
  9841     0D6E  30F0               	movlw	240
  9842     0D6F  2E63               	goto	l522
  9843     0D70                     l4612:
  9844                           
  9845                           ;car_black_box_def.c: 618:     if ((key == 0x37 || key == 0x2F) && i < 4)
  9846     0D70  3037               	movlw	55
  9847     0D71  0628               	xorwf	change_passwd@key,w
  9848     0D72  1903               	btfsc	3,2
  9849     0D73  2D75               	goto	u4961
  9850     0D74  2D76               	goto	u4960
  9851     0D75                     u4961:
  9852     0D75  2D7C               	goto	l4616
  9853     0D76                     u4960:
  9854     0D76                     l4614:
  9855     0D76  302F               	movlw	47
  9856     0D77  0628               	xorwf	change_passwd@key,w
  9857     0D78  1D03               	btfss	3,2
  9858     0D79  2D7B               	goto	u4971
  9859     0D7A  2D7C               	goto	u4970
  9860     0D7B                     u4971:
  9861     0D7B  2DB9               	goto	l4638
  9862     0D7C                     u4970:
  9863     0D7C                     l4616:
  9864     0D7C  3004               	movlw	4
  9865     0D7D  0260               	subwf	change_passwd@i,w
  9866     0D7E  1803               	skipnc
  9867     0D7F  2D81               	goto	u4981
  9868     0D80  2D82               	goto	u4980
  9869     0D81                     u4981:
  9870     0D81  2DB9               	goto	l4638
  9871     0D82                     u4980:
  9872     0D82                     l4618:
  9873                           
  9874                           ;car_black_box_def.c: 619:     {;car_black_box_def.c: 620:         clcd_putch('*', (0xC0
      +                           + 4 + i));
  9875     0D82  0860               	movf	change_passwd@i,w
  9876     0D83  3EC4               	addlw	196
  9877     0D84  00A0               	movwf	clcd_putch@addr
  9878     0D85  302A               	movlw	42
  9879     0D86  160A  118A  22C1  120A  158A  	fcall	_clcd_putch
  9880     0D8B                     l4620:
  9881                           
  9882                           ;car_black_box_def.c: 621:         return_time = 5;
  9883     0D8B  3005               	movlw	5
  9884     0D8C  1283               	bcf	3,5	;RP0=0, select bank0
  9885     0D8D  1303               	bcf	3,6	;RP1=0, select bank0
  9886     0D8E  00EB               	movwf	_return_time
  9887     0D8F                     l4622:
  9888                           
  9889                           ;car_black_box_def.c: 622:         val = (key == 0x37) ? '1' : '0';
  9890     0D8F  3037               	movlw	55
  9891     0D90  0628               	xorwf	change_passwd@key,w
  9892     0D91  1903               	btfsc	3,2
  9893     0D92  2D94               	goto	u4991
  9894     0D93  2D95               	goto	u4990
  9895     0D94                     u4991:
  9896     0D94  2D9A               	goto	l4626
  9897     0D95                     u4990:
  9898     0D95                     l4624:
  9899     0D95  3030               	movlw	48
  9900     0D96  00A6               	movwf	_change_passwd$431
  9901     0D97  3000               	movlw	0
  9902     0D98  00A7               	movwf	_change_passwd$431+1
  9903     0D99  2D9E               	goto	l529
  9904     0D9A                     l4626:
  9905     0D9A  3031               	movlw	49
  9906     0D9B  00A6               	movwf	_change_passwd$431
  9907     0D9C  3000               	movlw	0
  9908     0D9D  00A7               	movwf	_change_passwd$431+1
  9909     0D9E                     l529:
  9910     0D9E  0826               	movf	_change_passwd$431,w
  9911     0D9F  00DF               	movwf	change_passwd@val
  9912     0DA0                     l4628:
  9913                           
  9914                           ;car_black_box_def.c: 625:         if (flag == 0)
  9915     0DA0  0861               	movf	change_passwd@flag,w
  9916     0DA1  1D03               	btfss	3,2
  9917     0DA2  2DA4               	goto	u5001
  9918     0DA3  2DA5               	goto	u5000
  9919     0DA4                     u5001:
  9920     0DA4  2DAC               	goto	l4632
  9921     0DA5                     u5000:
  9922     0DA5                     l4630:
  9923                           
  9924                           ;car_black_box_def.c: 626:         {;car_black_box_def.c: 627:             new_pass[i] =
      +                           val;
  9925     0DA5  0860               	movf	change_passwd@i,w
  9926     0DA6  3EBE               	addlw	(low (change_passwd@new_pass| 0))& (0+255)
  9927     0DA7  0084               	movwf	4
  9928     0DA8  085F               	movf	change_passwd@val,w
  9929     0DA9  1383               	bcf	3,7	;select IRP bank1
  9930     0DAA  0080               	movwf	0
  9931                           
  9932                           ;car_black_box_def.c: 628:         }
  9933     0DAB  2DB7               	goto	l4636
  9934     0DAC                     l4632:
  9935     0DAC  0361               	decf	change_passwd@flag,w
  9936     0DAD  1D03               	btfss	3,2
  9937     0DAE  2DB0               	goto	u5011
  9938     0DAF  2DB1               	goto	u5010
  9939     0DB0                     u5011:
  9940     0DB0  2DB7               	goto	l4636
  9941     0DB1                     u5010:
  9942     0DB1                     l4634:
  9943                           
  9944                           ;car_black_box_def.c: 631:         {;car_black_box_def.c: 632:             re_enter[i] =
      +                           val;
  9945     0DB1  0860               	movf	change_passwd@i,w
  9946     0DB2  3EB9               	addlw	(low (change_passwd@re_enter| 0))& (0+255)
  9947     0DB3  0084               	movwf	4
  9948     0DB4  085F               	movf	change_passwd@val,w
  9949     0DB5  1383               	bcf	3,7	;select IRP bank1
  9950     0DB6  0080               	movwf	0
  9951     0DB7                     l4636:
  9952                           
  9953                           ;car_black_box_def.c: 634:         i++;
  9954     0DB7  3001               	movlw	1
  9955     0DB8  07E0               	addwf	change_passwd@i,f
  9956     0DB9                     l4638:
  9957                           
  9958                           ;car_black_box_def.c: 638:     if (flag == 0 && i == 4)
  9959     0DB9  0861               	movf	change_passwd@flag,w
  9960     0DBA  1D03               	btfss	3,2
  9961     0DBB  2DBD               	goto	u5021
  9962     0DBC  2DBE               	goto	u5020
  9963     0DBD                     u5021:
  9964     0DBD  2DE5               	goto	l4654
  9965     0DBE                     u5020:
  9966     0DBE                     l4640:
  9967     0DBE  3004               	movlw	4
  9968     0DBF  0660               	xorwf	change_passwd@i,w
  9969     0DC0  1D03               	btfss	3,2
  9970     0DC1  2DC3               	goto	u5031
  9971     0DC2  2DC4               	goto	u5030
  9972     0DC3                     u5031:
  9973     0DC3  2DE5               	goto	l4654
  9974     0DC4                     u5030:
  9975     0DC4                     l4642:
  9976                           
  9977                           ;car_black_box_def.c: 639:     {;car_black_box_def.c: 640:         i = 0;
  9978     0DC4  01E0               	clrf	change_passwd@i
  9979     0DC5                     l4644:
  9980                           
  9981                           ;car_black_box_def.c: 641:         flag = 1;
  9982     0DC5  3001               	movlw	1
  9983     0DC6  00E1               	movwf	change_passwd@flag
  9984     0DC7                     l4646:
  9985                           
  9986                           ;car_black_box_def.c: 642:         clear_screen();
  9987     0DC7  160A  118A  2266  120A  158A  	fcall	_clear_screen
  9988     0DCC                     l4648:
  9989                           
  9990                           ;car_black_box_def.c: 643:         clcd_print("Renter passwd", (0x80 + 0));
  9991     0DCC  30B9               	movlw	low (STR_39| (0+32768))
  9992     0DCD  00F6               	movwf	clcd_print@str
  9993     0DCE  3090               	movlw	high (STR_39| (0+32768))
  9994     0DCF  00F7               	movwf	clcd_print@str+1
  9995     0DD0  3080               	movlw	128
  9996     0DD1  00F8               	movwf	clcd_print@addr
  9997     0DD2  160A  118A  2494  120A  158A  	fcall	_clcd_print
  9998     0DD7                     l4650:
  9999                           
 10000                           ;car_black_box_def.c: 645:         clcd_write((0xC0 + 4), 0);
 10001     0DD7  01F2               	clrf	clcd_write@mode
 10002     0DD8  30C4               	movlw	196
 10003     0DD9  160A  118A  230D  120A  158A  	fcall	_clcd_write
 10004     0DDE                     l4652:
 10005                           
 10006                           ;car_black_box_def.c: 646:         clcd_write(0x0F, 0);
 10007     0DDE  01F2               	clrf	clcd_write@mode
 10008     0DDF  300F               	movlw	15
 10009     0DE0  160A  118A  230D  120A  158A  	fcall	_clcd_write
 10010     0DE5                     l4654:
 10011                           
 10012                           ;car_black_box_def.c: 650:     if (flag == 1 && i == 4)
 10013     0DE5  1283               	bcf	3,5	;RP0=0, select bank0
 10014     0DE6  1303               	bcf	3,6	;RP1=0, select bank0
 10015     0DE7  0361               	decf	change_passwd@flag,w
 10016     0DE8  1D03               	btfss	3,2
 10017     0DE9  2DEB               	goto	u5041
 10018     0DEA  2DEC               	goto	u5040
 10019     0DEB                     u5041:
 10020     0DEB  2E62               	goto	l4680
 10021     0DEC                     u5040:
 10022     0DEC                     l4656:
 10023     0DEC  3004               	movlw	4
 10024     0DED  0660               	xorwf	change_passwd@i,w
 10025     0DEE  1D03               	btfss	3,2
 10026     0DEF  2DF1               	goto	u5051
 10027     0DF0  2DF2               	goto	u5050
 10028     0DF1                     u5051:
 10029     0DF1  2E62               	goto	l4680
 10030     0DF2                     u5050:
 10031     0DF2                     l4658:
 10032                           
 10033                           ;car_black_box_def.c: 651:     {;car_black_box_def.c: 652:         new_pass[4] = '\0';
 10034     0DF2  1683               	bsf	3,5	;RP0=1, select bank1
 10035     0DF3  1303               	bcf	3,6	;RP1=0, select bank1
 10036     0DF4  01C2               	clrf	(change_passwd@new_pass^(0+128)+4)
 10037                           
 10038                           ;car_black_box_def.c: 653:         re_enter[4] = '\0';
 10039     0DF5  01BD               	clrf	(change_passwd@re_enter^(0+128)+4)
 10040     0DF6                     l4660:
 10041                           
 10042                           ;car_black_box_def.c: 655:         TMR2ON = 0;
 10043     0DF6  1283               	bcf	3,5	;RP0=0, select bank0
 10044     0DF7  1303               	bcf	3,6	;RP1=0, select bank0
 10045     0DF8  1112               	bcf	18,2	;volatile
 10046     0DF9                     l4662:
 10047                           
 10048                           ;car_black_box_def.c: 656:         clcd_write(0x0C, 0);
 10049     0DF9  01F2               	clrf	clcd_write@mode
 10050     0DFA  300C               	movlw	12
 10051     0DFB  160A  118A  230D  120A  158A  	fcall	_clcd_write
 10052     0E00                     l4664:
 10053                           
 10054                           ;car_black_box_def.c: 657:         clear_screen();
 10055     0E00  160A  118A  2266  120A  158A  	fcall	_clear_screen
 10056     0E05                     l4666:
 10057                           
 10058                           ;car_black_box_def.c: 660:         if (!strncmp(new_pass, re_enter, 4))
 10059     0E05  30BE               	movlw	(low (change_passwd@new_pass| 0))& (0+255)
 10060     0E06  00F2               	movwf	strncmp@l
 10061     0E07  30B9               	movlw	(low (change_passwd@re_enter| 0))& (0+255)
 10062     0E08  00F3               	movwf	strncmp@r
 10063     0E09  3004               	movlw	4
 10064     0E0A  00F4               	movwf	strncmp@n
 10065     0E0B  3000               	movlw	0
 10066     0E0C  00F5               	movwf	strncmp@n+1
 10067     0E0D  160A  118A  260A  120A  158A  	fcall	_strncmp
 10068     0E12  0872               	movf	?_strncmp,w
 10069     0E13  0473               	iorwf	?_strncmp+1,w
 10070     0E14  1D03               	btfss	3,2
 10071     0E15  2E17               	goto	u5061
 10072     0E16  2E18               	goto	u5060
 10073     0E17                     u5061:
 10074     0E17  2E39               	goto	l4670
 10075     0E18                     u5060:
 10076     0E18                     l4668:
 10077                           
 10078                           ;car_black_box_def.c: 661:         {;car_black_box_def.c: 662:             str_write_ext
      +                          _eeprom(0x00, new_pass);
 10079     0E18  30BE               	movlw	(low (change_passwd@new_pass| 0))& (0+255)
 10080     0E19  00F7               	movwf	str_write_ext_eeprom@data
 10081     0E1A  3000               	movlw	0
 10082     0E1B  00F8               	movwf	str_write_ext_eeprom@data+1
 10083     0E1C  3000               	movlw	0
 10084     0E1D  160A  118A  23E5  120A  158A  	fcall	_str_write_ext_eeprom
 10085                           
 10086                           ;car_black_box_def.c: 663:             clcd_print("Password change", (0x80 + 0));
 10087     0E22  307D               	movlw	low (STR_40| (0+32768))
 10088     0E23  00F6               	movwf	clcd_print@str
 10089     0E24  3090               	movlw	high (STR_40| (0+32768))
 10090     0E25  00F7               	movwf	clcd_print@str+1
 10091     0E26  3080               	movlw	128
 10092     0E27  00F8               	movwf	clcd_print@addr
 10093     0E28  160A  118A  2494  120A  158A  	fcall	_clcd_print
 10094                           
 10095                           ;car_black_box_def.c: 664:             clcd_print("Successful", (0xC0 + 0));
 10096     0E2D  300A               	movlw	low (STR_34| (0+32768))
 10097     0E2E  00F6               	movwf	clcd_print@str
 10098     0E2F  3091               	movlw	high (STR_34| (0+32768))
 10099     0E30  00F7               	movwf	clcd_print@str+1
 10100     0E31  30C0               	movlw	192
 10101     0E32  00F8               	movwf	clcd_print@addr
 10102     0E33  160A  118A  2494  120A  158A  	fcall	_clcd_print
 10103                           
 10104                           ;car_black_box_def.c: 665:         }
 10105     0E38  2E4F               	goto	l4672
 10106     0E39                     l4670:
 10107                           
 10108                           ;car_black_box_def.c: 667:         {;car_black_box_def.c: 668:             clcd_print("P
      +                          assword", (0x80 + 0));
 10109     0E39  3093               	movlw	low ((STR_20+6)| (0+32768))
 10110     0E3A  00F6               	movwf	clcd_print@str
 10111     0E3B  3090               	movlw	high ((STR_20+6)| (0+32768))
 10112     0E3C  00F7               	movwf	clcd_print@str+1
 10113     0E3D  3080               	movlw	128
 10114     0E3E  00F8               	movwf	clcd_print@addr
 10115     0E3F  160A  118A  2494  120A  158A  	fcall	_clcd_print
 10116                           
 10117                           ;car_black_box_def.c: 669:             clcd_print("not matching", (0xC0 + 0));
 10118     0E44  30F0               	movlw	low (STR_43| (0+32768))
 10119     0E45  00F6               	movwf	clcd_print@str
 10120     0E46  3090               	movlw	high (STR_43| (0+32768))
 10121     0E47  00F7               	movwf	clcd_print@str+1
 10122     0E48  30C0               	movlw	192
 10123     0E49  00F8               	movwf	clcd_print@addr
 10124     0E4A  160A  118A  2494  120A  158A  	fcall	_clcd_print
 10125     0E4F                     l4672:
 10126                           
 10127                           ;car_black_box_def.c: 672:         _delay((unsigned long)((2000)*(20000000/4000.0)));
 10128     0E4F  3033               	movlw	51
 10129     0E50  1283               	bcf	3,5	;RP0=0, select bank0
 10130     0E51  1303               	bcf	3,6	;RP1=0, select bank0
 10131     0E52  00A5               	movwf	??_change_passwd+2
 10132     0E53  30BB               	movlw	187
 10133     0E54  00A4               	movwf	??_change_passwd+1
 10134     0E55  30DF               	movlw	223
 10135     0E56  00A3               	movwf	??_change_passwd
 10136     0E57                     u5687:
 10137     0E57  0BA3               	decfsz	??_change_passwd,f
 10138     0E58  2E57               	goto	u5687
 10139     0E59  0BA4               	decfsz	??_change_passwd+1,f
 10140     0E5A  2E57               	goto	u5687
 10141     0E5B  0BA5               	decfsz	??_change_passwd+2,f
 10142     0E5C  2E57               	goto	u5687
 10143     0E5D                     l4674:
 10144                           
 10145                           ;car_black_box_def.c: 673:         i = 0;
 10146     0E5D  1283               	bcf	3,5	;RP0=0, select bank0
 10147     0E5E  1303               	bcf	3,6	;RP1=0, select bank0
 10148     0E5F  01E0               	clrf	change_passwd@i
 10149     0E60                     l4676:
 10150                           
 10151                           ;car_black_box_def.c: 674:         return 0xF1;
 10152     0E60  30F1               	movlw	241
 10153     0E61  2E63               	goto	l522
 10154     0E62                     l4680:
 10155                           
 10156                           ;car_black_box_def.c: 676:     return 0;
 10157     0E62  3000               	movlw	0
 10158     0E63                     l522:
 10159     0E63  0008               	return
 10160     0E64                     __end_of_change_passwd:
 10161                           
 10162                           	psect	text41
 10163     160A                     __ptext41:	
 10164 ;; *************** function _strncmp *****************
 10165 ;; Defined at:
 10166 ;;		line 3 in file "C:\Program Files\Microchip\xc8\v3.10\pic\sources\c99\common\strncmp.c"
 10167 ;; Parameters:    Size  Location     Type
 10168 ;;  l               1    2[COMMON] PTR const unsigned char 
 10169 ;;		 -> change_passwd@new_pass(5), login@user_passwd(4), 
 10170 ;;  r               1    3[COMMON] PTR const unsigned char 
 10171 ;;		 -> change_passwd@re_enter(5), login@stored_passwd(4), 
 10172 ;;  n               2    4[COMMON] unsigned int 
 10173 ;; Auto vars:     Size  Location     Type
 10174 ;;		None
 10175 ;; Return value:  Size  Location     Type
 10176 ;;                  2    2[COMMON] int 
 10177 ;; Registers used:
 10178 ;;		wreg, fsr0l, fsr0h, status,2, status,0
 10179 ;; Tracked objects:
 10180 ;;		On entry : 0/0
 10181 ;;		On exit  : 0/0
 10182 ;;		Unchanged: 0/0
 10183 ;; Data sizes:     COMMON   BANK0   BANK1   BANK3   BANK2
 10184 ;;      Params:         4       0       0       0       0
 10185 ;;      Locals:         0       0       0       0       0
 10186 ;;      Temps:          2       0       0       0       0
 10187 ;;      Totals:         6       0       0       0       0
 10188 ;;Total ram usage:        6 bytes
 10189 ;; Hardware stack levels used: 1
 10190 ;; Hardware stack levels required when called: 1
 10191 ;; This function calls:
 10192 ;;		Nothing
 10193 ;; This function is called by:
 10194 ;;		_login
 10195 ;;		_change_passwd
 10196 ;; This function uses a non-reentrant model
 10197 ;;
 10198                           
 10199     160A                     _strncmp:	
 10200                           ;psect for function _strncmp
 10201                           
 10202     160A                     l2870:	
 10203                           ;incstack = 0
 10204                           ; Regs used in _strncmp: [wreg-fsr0h+status,2+status,0]
 10205                           
 10206     160A  3001               	movlw	1
 10207     160B  02F4               	subwf	strncmp@n,f
 10208     160C  3000               	movlw	0
 10209     160D  1C03               	skipc
 10210     160E  03F5               	decf	strncmp@n+1,f
 10211     160F  02F5               	subwf	strncmp@n+1,f
 10212     1610  0A74               	incf	strncmp@n,w
 10213     1611  1D03               	skipz
 10214     1612  2E17               	goto	u2491
 10215     1613  0A75               	incf	strncmp@n+1,w
 10216     1614  1D03               	btfss	3,2
 10217     1615  2E17               	goto	u2491
 10218     1616  2E18               	goto	u2490
 10219     1617                     u2491:
 10220     1617  2E25               	goto	l2880
 10221     1618                     u2490:
 10222     1618                     l2872:
 10223     1618  01F2               	clrf	?_strncmp
 10224     1619  01F3               	clrf	?_strncmp+1
 10225     161A  2E54               	goto	l1181
 10226     161B                     l2876:
 10227     161B  3001               	movlw	1
 10228     161C  07F2               	addwf	strncmp@l,f
 10229     161D  3001               	movlw	1
 10230     161E  07F3               	addwf	strncmp@r,f
 10231     161F                     l2878:
 10232     161F  3001               	movlw	1
 10233     1620  02F4               	subwf	strncmp@n,f
 10234     1621  3000               	movlw	0
 10235     1622  1C03               	skipc
 10236     1623  03F5               	decf	strncmp@n+1,f
 10237     1624  02F5               	subwf	strncmp@n+1,f
 10238     1625                     l2880:
 10239     1625  0872               	movf	strncmp@l,w
 10240     1626  0084               	movwf	4
 10241     1627  1383               	bcf	3,7	;select IRP bank0
 10242     1628  0800               	movf	0,w
 10243     1629  1903               	btfsc	3,2
 10244     162A  2E2C               	goto	u2501
 10245     162B  2E2D               	goto	u2500
 10246     162C                     u2501:
 10247     162C  2E46               	goto	l2888
 10248     162D                     u2500:
 10249     162D                     l2882:
 10250     162D  0873               	movf	strncmp@r,w
 10251     162E  0084               	movwf	4
 10252     162F  0800               	movf	0,w
 10253     1630  1903               	btfsc	3,2
 10254     1631  2E33               	goto	u2511
 10255     1632  2E34               	goto	u2510
 10256     1633                     u2511:
 10257     1633  2E46               	goto	l2888
 10258     1634                     u2510:
 10259     1634                     l2884:
 10260     1634  0874               	movf	strncmp@n,w
 10261     1635  0475               	iorwf	strncmp@n+1,w
 10262     1636  1903               	btfsc	3,2
 10263     1637  2E39               	goto	u2521
 10264     1638  2E3A               	goto	u2520
 10265     1639                     u2521:
 10266     1639  2E46               	goto	l2888
 10267     163A                     u2520:
 10268     163A                     l2886:
 10269     163A  0873               	movf	strncmp@r,w
 10270     163B  0084               	movwf	4
 10271     163C  0800               	movf	0,w
 10272     163D  00F6               	movwf	??_strncmp
 10273     163E  0872               	movf	strncmp@l,w
 10274     163F  0084               	movwf	4
 10275     1640  0800               	movf	0,w
 10276     1641  0676               	xorwf	??_strncmp,w
 10277     1642  1903               	skipnz
 10278     1643  2E45               	goto	u2531
 10279     1644  2E46               	goto	u2530
 10280     1645                     u2531:
 10281     1645  2E1B               	goto	l2876
 10282     1646                     u2530:
 10283     1646                     l2888:
 10284     1646  0873               	movf	strncmp@r,w
 10285     1647  0084               	movwf	4
 10286     1648  0800               	movf	0,w
 10287     1649  00F6               	movwf	??_strncmp
 10288     164A  0872               	movf	strncmp@l,w
 10289     164B  0084               	movwf	4
 10290     164C  0800               	movf	0,w
 10291     164D  00F7               	movwf	??_strncmp+1
 10292     164E  0876               	movf	??_strncmp,w
 10293     164F  0277               	subwf	??_strncmp+1,w
 10294     1650  00F2               	movwf	?_strncmp
 10295     1651  01F3               	clrf	?_strncmp+1
 10296     1652  1C03               	skipc
 10297     1653  03F3               	decf	?_strncmp+1,f
 10298     1654                     l1181:
 10299     1654  0008               	return
 10300     1655                     __end_of_strncmp:
 10301                           
 10302                           	psect	text42
 10303     13E5                     __ptext42:	
 10304 ;; *************** function _str_write_ext_eeprom *****************
 10305 ;; Defined at:
 10306 ;;		line 31 in file "external_eeprom.c"
 10307 ;; Parameters:    Size  Location     Type
 10308 ;;  addr            1    wreg     unsigned char 
 10309 ;;  data            2    7[COMMON] PTR unsigned char 
 10310 ;;		 -> change_passwd@new_pass(5), log(11), STR_7(5), 
 10311 ;; Auto vars:     Size  Location     Type
 10312 ;;  addr            1    9[COMMON] unsigned char 
 10313 ;; Return value:  Size  Location     Type
 10314 ;;                  1    wreg      void 
 10315 ;; Registers used:
 10316 ;;		wreg, fsr0l, fsr0h, status,2, status,0, pclath, btemp1, cstack
 10317 ;; Tracked objects:
 10318 ;;		On entry : 0/0
 10319 ;;		On exit  : 0/0
 10320 ;;		Unchanged: 0/0
 10321 ;; Data sizes:     COMMON   BANK0   BANK1   BANK3   BANK2
 10322 ;;      Params:         2       0       0       0       0
 10323 ;;      Locals:         1       0       0       0       0
 10324 ;;      Temps:          0       0       0       0       0
 10325 ;;      Totals:         3       0       0       0       0
 10326 ;;Total ram usage:        3 bytes
 10327 ;; Hardware stack levels used: 1
 10328 ;; Hardware stack levels required when called: 1
 10329 ;; This function calls:
 10330 ;;		_write_external_eeprom
 10331 ;; This function is called by:
 10332 ;;		_main
 10333 ;;		_log_car_event
 10334 ;;		_change_passwd
 10335 ;; This function uses a non-reentrant model
 10336 ;;
 10337                           
 10338     13E5                     _str_write_ext_eeprom:	
 10339                           ;psect for function _str_write_ext_eeprom
 10340                           
 10341                           
 10342                           ;incstack = 0
 10343                           ; Regs used in _str_write_ext_eeprom: [wreg-fsr0h+status,2+status,0+pclath+btemp1+cstack
      +                          ]
 10344                           ;str_write_ext_eeprom@addr stored from wreg
 10345     13E5  00F9               	movwf	str_write_ext_eeprom@addr
 10346     13E6                     l3968:
 10347                           
 10348                           ;external_eeprom.c: 31: void str_write_ext_eeprom(unsigned char addr, char *data);extern
      +                          al_eeprom.c: 32: {;external_eeprom.c: 33:     while (*data != 0)
 10349     13E6  2BFF               	goto	l3976
 10350     13E7                     l3970:
 10351                           
 10352                           ;external_eeprom.c: 34:     {;external_eeprom.c: 35:         write_external_eeprom(addr,
      +                           *data);
 10353     13E7  0878               	movf	str_write_ext_eeprom@data+1,w
 10354     13E8  00FF               	movwf	btemp1
 10355     13E9  0877               	movf	str_write_ext_eeprom@data,w
 10356     13EA  0084               	movwf	4
 10357     13EB  160A  118A  218A  160A  118A  	fcall	stringtab
 10358     13F0  00F3               	movwf	write_external_eeprom@data
 10359     13F1  0879               	movf	str_write_ext_eeprom@addr,w
 10360     13F2  160A  118A  24C3  160A  118A  	fcall	_write_external_eeprom
 10361     13F7                     l3972:
 10362                           
 10363                           ;external_eeprom.c: 36:         data++;
 10364     13F7  3001               	movlw	1
 10365     13F8  07F7               	addwf	str_write_ext_eeprom@data,f
 10366     13F9  1803               	skipnc
 10367     13FA  0AF8               	incf	str_write_ext_eeprom@data+1,f
 10368     13FB  3000               	movlw	0
 10369     13FC  07F8               	addwf	str_write_ext_eeprom@data+1,f
 10370     13FD                     l3974:
 10371                           
 10372                           ;external_eeprom.c: 37:         addr++;
 10373     13FD  3001               	movlw	1
 10374     13FE  07F9               	addwf	str_write_ext_eeprom@addr,f
 10375     13FF                     l3976:
 10376                           
 10377                           ;external_eeprom.c: 33:     while (*data != 0)
 10378     13FF  0878               	movf	str_write_ext_eeprom@data+1,w
 10379     1400  1283               	bcf	3,5	;RP0=0, select bank0
 10380     1401  1303               	bcf	3,6	;RP1=0, select bank0
 10381     1402  00FF               	movwf	btemp1
 10382     1403  0877               	movf	str_write_ext_eeprom@data,w
 10383     1404  0084               	movwf	4
 10384     1405  160A  118A  218A  160A  118A  	fcall	stringtab
 10385     140A  3A00               	xorlw	0
 10386     140B  1D03               	skipz
 10387     140C  2C0E               	goto	u4081
 10388     140D  2C0F               	goto	u4080
 10389     140E                     u4081:
 10390     140E  2BE7               	goto	l3970
 10391     140F                     u4080:
 10392     140F                     l561:
 10393     140F  0008               	return
 10394     1410                     __end_of_str_write_ext_eeprom:
 10395                           
 10396                           	psect	text43
 10397     14C3                     __ptext43:	
 10398 ;; *************** function _write_external_eeprom *****************
 10399 ;; Defined at:
 10400 ;;		line 6 in file "external_eeprom.c"
 10401 ;; Parameters:    Size  Location     Type
 10402 ;;  address         1    wreg     unsigned char 
 10403 ;;  data            1    3[COMMON] unsigned char 
 10404 ;; Auto vars:     Size  Location     Type
 10405 ;;  address         1    4[COMMON] unsigned char 
 10406 ;;  wait            2    5[COMMON] unsigned int 
 10407 ;; Return value:  Size  Location     Type
 10408 ;;                  1    wreg      void 
 10409 ;; Registers used:
 10410 ;;		wreg, status,2, status,0, pclath, cstack
 10411 ;; Tracked objects:
 10412 ;;		On entry : 0/0
 10413 ;;		On exit  : 0/0
 10414 ;;		Unchanged: 0/0
 10415 ;; Data sizes:     COMMON   BANK0   BANK1   BANK3   BANK2
 10416 ;;      Params:         1       0       0       0       0
 10417 ;;      Locals:         3       0       0       0       0
 10418 ;;      Temps:          0       0       0       0       0
 10419 ;;      Totals:         4       0       0       0       0
 10420 ;;Total ram usage:        4 bytes
 10421 ;; Hardware stack levels used: 1
 10422 ;; Hardware stack levels required when called: 3
 10423 ;; This function calls:
 10424 ;;		_i2c_start
 10425 ;;		_i2c_stop
 10426 ;;		_i2c_write
 10427 ;; This function is called by:
 10428 ;;		_str_write_ext_eeprom
 10429 ;; This function uses a non-reentrant model
 10430 ;;
 10431                           
 10432     14C3                     _write_external_eeprom:	
 10433                           ;psect for function _write_external_eeprom
 10434                           
 10435                           
 10436                           ;incstack = 0
 10437                           ; Regs used in _write_external_eeprom: [wreg+status,2+status,0+pclath+cstack]
 10438                           ;write_external_eeprom@address stored from wreg
 10439     14C3  00F4               	movwf	write_external_eeprom@address
 10440     14C4                     l3962:
 10441                           
 10442                           ;external_eeprom.c: 6: void write_external_eeprom(unsigned char address, unsigned char d
      +                          ata);external_eeprom.c: 7: {;external_eeprom.c: 8:     i2c_start();
 10443     14C4  160A  118A  221B  160A  118A  	fcall	_i2c_start
 10444                           
 10445                           ;external_eeprom.c: 9:     i2c_write(0xA0);
 10446     14C9  30A0               	movlw	160
 10447     14CA  160A  118A  222D  160A  118A  	fcall	_i2c_write
 10448                           
 10449                           ;external_eeprom.c: 10:     i2c_write(address);
 10450     14CF  0874               	movf	write_external_eeprom@address,w
 10451     14D0  160A  118A  222D  160A  118A  	fcall	_i2c_write
 10452                           
 10453                           ;external_eeprom.c: 11:     i2c_write(data);
 10454     14D5  0873               	movf	write_external_eeprom@data,w
 10455     14D6  160A  118A  222D  160A  118A  	fcall	_i2c_write
 10456                           
 10457                           ;external_eeprom.c: 12:     i2c_stop();
 10458     14DB  160A  118A  2224  160A  118A  	fcall	_i2c_stop
 10459     14E0                     l3964:
 10460                           
 10461                           ;external_eeprom.c: 13:     for (unsigned int wait = 3000;wait--;);
 10462     14E0  30B8               	movlw	184
 10463     14E1  00F5               	movwf	write_external_eeprom@wait
 10464     14E2  300B               	movlw	11
 10465     14E3  00F6               	movwf	write_external_eeprom@wait+1
 10466     14E4                     l3966:
 10467     14E4  3001               	movlw	1
 10468     14E5  02F5               	subwf	write_external_eeprom@wait,f
 10469     14E6  3000               	movlw	0
 10470     14E7  1C03               	skipc
 10471     14E8  03F6               	decf	write_external_eeprom@wait+1,f
 10472     14E9  02F6               	subwf	write_external_eeprom@wait+1,f
 10473     14EA  0A75               	incf	write_external_eeprom@wait,w
 10474     14EB  1D03               	skipz
 10475     14EC  2CF1               	goto	u4071
 10476     14ED  0A76               	incf	write_external_eeprom@wait+1,w
 10477     14EE  1D03               	btfss	3,2
 10478     14EF  2CF1               	goto	u4071
 10479     14F0  2CF2               	goto	u4070
 10480     14F1                     u4071:
 10481     14F1  2CE4               	goto	l3966
 10482     14F2                     u4070:
 10483     14F2                     l552:
 10484     14F2  0008               	return
 10485     14F3                     __end_of_write_external_eeprom:
 10486                           
 10487                           	psect	text44
 10488     122D                     __ptext44:	
 10489 ;; *************** function _i2c_write *****************
 10490 ;; Defined at:
 10491 ;;		line 65 in file "i2c.c"
 10492 ;; Parameters:    Size  Location     Type
 10493 ;;  data            1    wreg     unsigned char 
 10494 ;; Auto vars:     Size  Location     Type
 10495 ;;  data            1    2[COMMON] unsigned char 
 10496 ;; Return value:  Size  Location     Type
 10497 ;;                  2  220[None  ] int 
 10498 ;; Registers used:
 10499 ;;		wreg, status,2, status,0, pclath, cstack
 10500 ;; Tracked objects:
 10501 ;;		On entry : 0/0
 10502 ;;		On exit  : 0/0
 10503 ;;		Unchanged: 0/0
 10504 ;; Data sizes:     COMMON   BANK0   BANK1   BANK3   BANK2
 10505 ;;      Params:         0       0       0       0       0
 10506 ;;      Locals:         1       0       0       0       0
 10507 ;;      Temps:          0       0       0       0       0
 10508 ;;      Totals:         1       0       0       0       0
 10509 ;;Total ram usage:        1 bytes
 10510 ;; Hardware stack levels used: 1
 10511 ;; Hardware stack levels required when called: 1
 10512 ;; This function calls:
 10513 ;;		_i2c_wait_for_idle
 10514 ;; This function is called by:
 10515 ;;		_read_ds1307
 10516 ;;		_write_ds1307
 10517 ;;		_write_external_eeprom
 10518 ;;		_read_external_eeprom
 10519 ;; This function uses a non-reentrant model
 10520 ;;
 10521                           
 10522     122D                     _i2c_write:	
 10523                           ;psect for function _i2c_write
 10524                           
 10525                           
 10526                           ;incstack = 0
 10527                           ; Regs used in _i2c_write: [wreg+status,2+status,0+pclath+cstack]
 10528                           ;i2c_write@data stored from wreg
 10529     122D  00F2               	movwf	i2c_write@data
 10530     122E                     l3924:
 10531                           
 10532                           ;i2c.c: 65: int i2c_write(unsigned char data);i2c.c: 66: {;i2c.c: 67:     i2c_wait_for_i
      +                          dle();
 10533     122E  160A  118A  2259  160A  118A  	fcall	_i2c_wait_for_idle
 10534     1233                     l3926:
 10535                           
 10536                           ;i2c.c: 68:     SSPBUF = data;
 10537     1233  0872               	movf	i2c_write@data,w
 10538     1234  1283               	bcf	3,5	;RP0=0, select bank0
 10539     1235  1303               	bcf	3,6	;RP1=0, select bank0
 10540     1236  0093               	movwf	19	;volatile
 10541     1237                     l3928:
 10542     1237                     l287:	
 10543                           ;i2c.c: 70:     return !ACKSTAT;;	Return value of _i2c_write is never used
 10544                           
 10545     1237  0008               	return
 10546     1238                     __end_of_i2c_write:
 10547                           
 10548                           	psect	text45
 10549     1224                     __ptext45:	
 10550 ;; *************** function _i2c_stop *****************
 10551 ;; Defined at:
 10552 ;;		line 35 in file "i2c.c"
 10553 ;; Parameters:    Size  Location     Type
 10554 ;;		None
 10555 ;; Auto vars:     Size  Location     Type
 10556 ;;		None
 10557 ;; Return value:  Size  Location     Type
 10558 ;;                  1    wreg      void 
 10559 ;; Registers used:
 10560 ;;		wreg, status,2, status,0, pclath, cstack
 10561 ;; Tracked objects:
 10562 ;;		On entry : 0/0
 10563 ;;		On exit  : 0/0
 10564 ;;		Unchanged: 0/0
 10565 ;; Data sizes:     COMMON   BANK0   BANK1   BANK3   BANK2
 10566 ;;      Params:         0       0       0       0       0
 10567 ;;      Locals:         0       0       0       0       0
 10568 ;;      Temps:          0       0       0       0       0
 10569 ;;      Totals:         0       0       0       0       0
 10570 ;;Total ram usage:        0 bytes
 10571 ;; Hardware stack levels used: 1
 10572 ;; Hardware stack levels required when called: 1
 10573 ;; This function calls:
 10574 ;;		_i2c_wait_for_idle
 10575 ;; This function is called by:
 10576 ;;		_read_ds1307
 10577 ;;		_write_ds1307
 10578 ;;		_i2c_rep_start
 10579 ;;		_write_external_eeprom
 10580 ;;		_read_external_eeprom
 10581 ;; This function uses a non-reentrant model
 10582 ;;
 10583                           
 10584     1224                     _i2c_stop:	
 10585                           ;psect for function _i2c_stop
 10586                           
 10587     1224                     l3920:	
 10588                           ;incstack = 0
 10589                           ; Regs used in _i2c_stop: [wreg+status,2+status,0+pclath+cstack]
 10590                           
 10591                           
 10592                           ;i2c.c: 37:     i2c_wait_for_idle();
 10593     1224  160A  118A  2259  160A  118A  	fcall	_i2c_wait_for_idle
 10594     1229                     l3922:
 10595                           
 10596                           ;i2c.c: 38:     PEN = 1;
 10597     1229  1683               	bsf	3,5	;RP0=1, select bank1
 10598     122A  1303               	bcf	3,6	;RP1=0, select bank1
 10599     122B  1511               	bsf	17,2	;volatile
 10600     122C                     l279:
 10601     122C  0008               	return
 10602     122D                     __end_of_i2c_stop:
 10603                           
 10604                           	psect	text46
 10605     121B                     __ptext46:	
 10606 ;; *************** function _i2c_start *****************
 10607 ;; Defined at:
 10608 ;;		line 22 in file "i2c.c"
 10609 ;; Parameters:    Size  Location     Type
 10610 ;;		None
 10611 ;; Auto vars:     Size  Location     Type
 10612 ;;		None
 10613 ;; Return value:  Size  Location     Type
 10614 ;;                  1    wreg      void 
 10615 ;; Registers used:
 10616 ;;		wreg, status,2, status,0, pclath, cstack
 10617 ;; Tracked objects:
 10618 ;;		On entry : 0/0
 10619 ;;		On exit  : 0/0
 10620 ;;		Unchanged: 0/0
 10621 ;; Data sizes:     COMMON   BANK0   BANK1   BANK3   BANK2
 10622 ;;      Params:         0       0       0       0       0
 10623 ;;      Locals:         0       0       0       0       0
 10624 ;;      Temps:          0       0       0       0       0
 10625 ;;      Totals:         0       0       0       0       0
 10626 ;;Total ram usage:        0 bytes
 10627 ;; Hardware stack levels used: 1
 10628 ;; Hardware stack levels required when called: 1
 10629 ;; This function calls:
 10630 ;;		_i2c_wait_for_idle
 10631 ;; This function is called by:
 10632 ;;		_read_ds1307
 10633 ;;		_write_ds1307
 10634 ;;		_i2c_rep_start
 10635 ;;		_write_external_eeprom
 10636 ;;		_read_external_eeprom
 10637 ;; This function uses a non-reentrant model
 10638 ;;
 10639                           
 10640     121B                     _i2c_start:	
 10641                           ;psect for function _i2c_start
 10642                           
 10643     121B                     l3916:	
 10644                           ;incstack = 0
 10645                           ; Regs used in _i2c_start: [wreg+status,2+status,0+pclath+cstack]
 10646                           
 10647                           
 10648                           ;i2c.c: 24:     i2c_wait_for_idle();
 10649     121B  160A  118A  2259  160A  118A  	fcall	_i2c_wait_for_idle
 10650     1220                     l3918:
 10651                           
 10652                           ;i2c.c: 25:     SEN = 1;
 10653     1220  1683               	bsf	3,5	;RP0=1, select bank1
 10654     1221  1303               	bcf	3,6	;RP1=0, select bank1
 10655     1222  1411               	bsf	17,0	;volatile
 10656     1223                     l273:
 10657     1223  0008               	return
 10658     1224                     __end_of_i2c_start:
 10659                           
 10660                           	psect	text47
 10661     1259                     __ptext47:	
 10662 ;; *************** function _i2c_wait_for_idle *****************
 10663 ;; Defined at:
 10664 ;;		line 16 in file "i2c.c"
 10665 ;; Parameters:    Size  Location     Type
 10666 ;;		None
 10667 ;; Auto vars:     Size  Location     Type
 10668 ;;		None
 10669 ;; Return value:  Size  Location     Type
 10670 ;;                  1    wreg      void 
 10671 ;; Registers used:
 10672 ;;		wreg, status,2
 10673 ;; Tracked objects:
 10674 ;;		On entry : 0/0
 10675 ;;		On exit  : 0/0
 10676 ;;		Unchanged: 0/0
 10677 ;; Data sizes:     COMMON   BANK0   BANK1   BANK3   BANK2
 10678 ;;      Params:         0       0       0       0       0
 10679 ;;      Locals:         0       0       0       0       0
 10680 ;;      Temps:          0       0       0       0       0
 10681 ;;      Totals:         0       0       0       0       0
 10682 ;;Total ram usage:        0 bytes
 10683 ;; Hardware stack levels used: 1
 10684 ;; Hardware stack levels required when called: 1
 10685 ;; This function calls:
 10686 ;;		Nothing
 10687 ;; This function is called by:
 10688 ;;		_i2c_start
 10689 ;;		_i2c_stop
 10690 ;;		_i2c_read
 10691 ;;		_i2c_write
 10692 ;; This function uses a non-reentrant model
 10693 ;;
 10694                           
 10695     1259                     _i2c_wait_for_idle:	
 10696                           ;psect for function _i2c_wait_for_idle
 10697                           
 10698     1259                     l3912:	
 10699                           ;incstack = 0
 10700                           ; Regs used in _i2c_wait_for_idle: [wreg+status,2]
 10701                           
 10702     1259                     l267:	
 10703                           ;i2c.c: 19:     while (R_nW || (SSPCON2 & 0x1F));
 10704                           
 10705     1259  1683               	bsf	3,5	;RP0=1, select bank1
 10706     125A  1303               	bcf	3,6	;RP1=0, select bank1
 10707     125B  1914               	btfsc	20,2	;volatile
 10708     125C  2A5E               	goto	u4021
 10709     125D  2A5F               	goto	u4020
 10710     125E                     u4021:
 10711     125E  2A59               	goto	l267
 10712     125F                     u4020:
 10713     125F                     l3914:
 10714     125F  0811               	movf	17,w	;volatile
 10715     1260  391F               	andlw	31
 10716     1261  1D03               	btfss	3,2
 10717     1262  2A64               	goto	u4031
 10718     1263  2A65               	goto	u4030
 10719     1264                     u4031:
 10720     1264  2A59               	goto	l267
 10721     1265                     u4030:
 10722     1265                     l270:
 10723     1265  0008               	return
 10724     1266                     __end_of_i2c_wait_for_idle:
 10725                           
 10726                           	psect	text48
 10727     1266                     __ptext48:	
 10728 ;; *************** function _clear_screen *****************
 10729 ;; Defined at:
 10730 ;;		line 107 in file "car_black_box_def.c"
 10731 ;; Parameters:    Size  Location     Type
 10732 ;;		None
 10733 ;; Auto vars:     Size  Location     Type
 10734 ;;		None
 10735 ;; Return value:  Size  Location     Type
 10736 ;;                  1    wreg      void 
 10737 ;; Registers used:
 10738 ;;		wreg, status,2, status,0, pclath, cstack
 10739 ;; Tracked objects:
 10740 ;;		On entry : 0/0
 10741 ;;		On exit  : 0/0
 10742 ;;		Unchanged: 0/0
 10743 ;; Data sizes:     COMMON   BANK0   BANK1   BANK3   BANK2
 10744 ;;      Params:         0       0       0       0       0
 10745 ;;      Locals:         0       0       0       0       0
 10746 ;;      Temps:          2       0       0       0       0
 10747 ;;      Totals:         2       0       0       0       0
 10748 ;;Total ram usage:        2 bytes
 10749 ;; Hardware stack levels used: 1
 10750 ;; Hardware stack levels required when called: 1
 10751 ;; This function calls:
 10752 ;;		_clcd_write
 10753 ;; This function is called by:
 10754 ;;		_main
 10755 ;;		_login
 10756 ;;		_menu_screen
 10757 ;;		_view_log
 10758 ;;		_set_time
 10759 ;;		_change_passwd
 10760 ;; This function uses a non-reentrant model
 10761 ;;
 10762                           
 10763     1266                     _clear_screen:	
 10764                           ;psect for function _clear_screen
 10765                           
 10766     1266                     l4090:	
 10767                           ;incstack = 0
 10768                           ; Regs used in _clear_screen: [wreg+status,2+status,0+pclath+cstack]
 10769                           
 10770                           
 10771                           ;car_black_box_def.c: 109:     clcd_write(0x01, 0);
 10772     1266  01F2               	clrf	clcd_write@mode
 10773     1267  3001               	movlw	1
 10774     1268  160A  118A  230D  160A  118A  	fcall	_clcd_write
 10775     126D                     l4092:
 10776                           
 10777                           ;car_black_box_def.c: 110:     _delay((unsigned long)((500)*(20000000/4000000.0)));
 10778     126D  3004               	movlw	4
 10779     126E  00F7               	movwf	??_clear_screen+1
 10780     126F  303D               	movlw	61
 10781     1270  00F6               	movwf	??_clear_screen
 10782     1271                     u5697:
 10783     1271  0BF6               	decfsz	??_clear_screen,f
 10784     1272  2A71               	goto	u5697
 10785     1273  0BF7               	decfsz	??_clear_screen+1,f
 10786     1274  2A71               	goto	u5697
 10787     1275  2A76               	nop2
 10788     1276                     l382:
 10789     1276  0008               	return
 10790     1277                     __end_of_clear_screen:
 10791                           
 10792                           	psect	text49
 10793     12C1                     __ptext49:	
 10794 ;; *************** function _clcd_putch *****************
 10795 ;; Defined at:
 10796 ;;		line 49 in file "clcd.c"
 10797 ;; Parameters:    Size  Location     Type
 10798 ;;  data            1    wreg     const unsigned char 
 10799 ;;  addr            1    0[BANK0 ] unsigned char 
 10800 ;; Auto vars:     Size  Location     Type
 10801 ;;  data            1    1[BANK0 ] const unsigned char 
 10802 ;; Return value:  Size  Location     Type
 10803 ;;                  1    wreg      void 
 10804 ;; Registers used:
 10805 ;;		wreg, status,2, status,0, pclath, cstack
 10806 ;; Tracked objects:
 10807 ;;		On entry : 0/0
 10808 ;;		On exit  : 0/0
 10809 ;;		Unchanged: 0/0
 10810 ;; Data sizes:     COMMON   BANK0   BANK1   BANK3   BANK2
 10811 ;;      Params:         0       1       0       0       0
 10812 ;;      Locals:         0       1       0       0       0
 10813 ;;      Temps:          0       0       0       0       0
 10814 ;;      Totals:         0       2       0       0       0
 10815 ;;Total ram usage:        2 bytes
 10816 ;; Hardware stack levels used: 1
 10817 ;; Hardware stack levels required when called: 1
 10818 ;; This function calls:
 10819 ;;		_clcd_write
 10820 ;; This function is called by:
 10821 ;;		_display_time
 10822 ;;		_display_dashboard
 10823 ;;		_login
 10824 ;;		_menu_screen
 10825 ;;		_print_log
 10826 ;;		_set_time
 10827 ;;		_change_passwd
 10828 ;; This function uses a non-reentrant model
 10829 ;;
 10830                           
 10831     12C1                     _clcd_putch:	
 10832                           ;psect for function _clcd_putch
 10833                           
 10834                           
 10835                           ;incstack = 0
 10836                           ; Regs used in _clcd_putch: [wreg+status,2+status,0+pclath+cstack]
 10837                           ;clcd_putch@data stored from wreg
 10838     12C1  1283               	bcf	3,5	;RP0=0, select bank0
 10839     12C2  1303               	bcf	3,6	;RP1=0, select bank0
 10840     12C3  00A1               	movwf	clcd_putch@data
 10841     12C4                     l3998:
 10842                           
 10843                           ;clcd.c: 49: void clcd_putch(const char data, unsigned char addr);clcd.c: 50: {;clcd.c: 
      +                          51:     clcd_write(addr, 0);
 10844     12C4  01F2               	clrf	clcd_write@mode
 10845     12C5  0820               	movf	clcd_putch@addr,w
 10846     12C6  160A  118A  230D  160A  118A  	fcall	_clcd_write
 10847                           
 10848                           ;clcd.c: 52:     clcd_write(data, 1);
 10849     12CB  01F2               	clrf	clcd_write@mode
 10850     12CC  0AF2               	incf	clcd_write@mode,f
 10851     12CD  1283               	bcf	3,5	;RP0=0, select bank0
 10852     12CE  1303               	bcf	3,6	;RP1=0, select bank0
 10853     12CF  0821               	movf	clcd_putch@data,w
 10854     12D0  160A  118A  230D  160A  118A  	fcall	_clcd_write
 10855     12D5                     l189:
 10856     12D5  0008               	return
 10857     12D6                     __end_of_clcd_putch:
 10858                           
 10859                           	psect	text50
 10860     1494                     __ptext50:	
 10861 ;; *************** function _clcd_print *****************
 10862 ;; Defined at:
 10863 ;;		line 55 in file "clcd.c"
 10864 ;; Parameters:    Size  Location     Type
 10865 ;;  str             2    6[COMMON] PTR const unsigned char 
 10866 ;;		 -> STR_43(13), STR_42(9), STR_41(11), STR_40(16), 
 10867 ;;		 -> STR_39(14), STR_38(17), STR_37(3), STR_36(3), 
 10868 ;;		 -> STR_35(3), STR_34(11), STR_33(9), STR_32(9), 
 10869 ;;		 -> STR_30(10), STR_29(8), STR_28(16), STR_26(13), 
 10870 ;;		 -> STR_25(10), STR_24(8), STR_23(17), STR_22(15), 
 10871 ;;		 -> STR_21(14), STR_20(15), STR_19(5), STR_18(9), 
 10872 ;;		 -> STR_17(16), STR_16(14), STR_15(16), STR_14(14), 
 10873 ;;		 -> STR_13(9), STR_12(13), STR_11(10), STR_10(9), 
 10874 ;;		 -> STR_9(15), main@event(3), 
 10875 ;;  addr            1    8[COMMON] unsigned char 
 10876 ;; Auto vars:     Size  Location     Type
 10877 ;;		None
 10878 ;; Return value:  Size  Location     Type
 10879 ;;                  1    wreg      void 
 10880 ;; Registers used:
 10881 ;;		wreg, fsr0l, fsr0h, status,2, status,0, pclath, btemp1, cstack
 10882 ;; Tracked objects:
 10883 ;;		On entry : 0/0
 10884 ;;		On exit  : 0/0
 10885 ;;		Unchanged: 0/0
 10886 ;; Data sizes:     COMMON   BANK0   BANK1   BANK3   BANK2
 10887 ;;      Params:         3       0       0       0       0
 10888 ;;      Locals:         0       0       0       0       0
 10889 ;;      Temps:          0       0       0       0       0
 10890 ;;      Totals:         3       0       0       0       0
 10891 ;;Total ram usage:        3 bytes
 10892 ;; Hardware stack levels used: 1
 10893 ;; Hardware stack levels required when called: 1
 10894 ;; This function calls:
 10895 ;;		_clcd_write
 10896 ;; This function is called by:
 10897 ;;		_main
 10898 ;;		_display_dashboard
 10899 ;;		_login
 10900 ;;		_menu_screen
 10901 ;;		_view_log
 10902 ;;		_clear_log
 10903 ;;		_download_log
 10904 ;;		_set_time
 10905 ;;		_change_passwd
 10906 ;; This function uses a non-reentrant model
 10907 ;;
 10908                           
 10909     1494                     _clcd_print:	
 10910                           ;psect for function _clcd_print
 10911                           
 10912     1494                     l4094:	
 10913                           ;incstack = 0
 10914                           ; Regs used in _clcd_print: [wreg-fsr0h+status,2+status,0+pclath+btemp1+cstack]
 10915                           
 10916                           
 10917                           ;clcd.c: 55: void clcd_print(const char *str, unsigned char addr);clcd.c: 56: {;clcd.c: 
      +                          57:     clcd_write(addr, 0);
 10918     1494  01F2               	clrf	clcd_write@mode
 10919     1495  0878               	movf	clcd_print@addr,w
 10920     1496  160A  118A  230D  160A  118A  	fcall	_clcd_write
 10921                           
 10922                           ;clcd.c: 59:     while (*str != '\0')
 10923     149B  2CB2               	goto	l4100
 10924     149C                     l4096:
 10925                           
 10926                           ;clcd.c: 60:     {;clcd.c: 61:         clcd_write(*str, 1);
 10927     149C  01F2               	clrf	clcd_write@mode
 10928     149D  0AF2               	incf	clcd_write@mode,f
 10929     149E  0877               	movf	clcd_print@str+1,w
 10930     149F  00FF               	movwf	btemp1
 10931     14A0  0876               	movf	clcd_print@str,w
 10932     14A1  0084               	movwf	4
 10933     14A2  160A  118A  218A  160A  118A  	fcall	stringtab
 10934     14A7  160A  118A  230D  160A  118A  	fcall	_clcd_write
 10935     14AC                     l4098:
 10936                           
 10937                           ;clcd.c: 62:         str++;
 10938     14AC  3001               	movlw	1
 10939     14AD  07F6               	addwf	clcd_print@str,f
 10940     14AE  1803               	skipnc
 10941     14AF  0AF7               	incf	clcd_print@str+1,f
 10942     14B0  3000               	movlw	0
 10943     14B1  07F7               	addwf	clcd_print@str+1,f
 10944     14B2                     l4100:
 10945                           
 10946                           ;clcd.c: 59:     while (*str != '\0')
 10947     14B2  0877               	movf	clcd_print@str+1,w
 10948     14B3  1283               	bcf	3,5	;RP0=0, select bank0
 10949     14B4  1303               	bcf	3,6	;RP1=0, select bank0
 10950     14B5  00FF               	movwf	btemp1
 10951     14B6  0876               	movf	clcd_print@str,w
 10952     14B7  0084               	movwf	4
 10953     14B8  160A  118A  218A  160A  118A  	fcall	stringtab
 10954     14BD  3A00               	xorlw	0
 10955     14BE  1D03               	skipz
 10956     14BF  2CC1               	goto	u4241
 10957     14C0  2CC2               	goto	u4240
 10958     14C1                     u4241:
 10959     14C1  2C9C               	goto	l4096
 10960     14C2                     u4240:
 10961     14C2                     l195:
 10962     14C2  0008               	return
 10963     14C3                     __end_of_clcd_print:
 10964                           
 10965                           	psect	text51
 10966     130D                     __ptext51:	
 10967 ;; *************** function _clcd_write *****************
 10968 ;; Defined at:
 10969 ;;		line 4 in file "clcd.c"
 10970 ;; Parameters:    Size  Location     Type
 10971 ;;  byte            1    wreg     unsigned char 
 10972 ;;  mode            1    2[COMMON] unsigned char 
 10973 ;; Auto vars:     Size  Location     Type
 10974 ;;  byte            1    5[COMMON] unsigned char 
 10975 ;; Return value:  Size  Location     Type
 10976 ;;                  1    wreg      void 
 10977 ;; Registers used:
 10978 ;;		wreg
 10979 ;; Tracked objects:
 10980 ;;		On entry : 0/0
 10981 ;;		On exit  : 0/0
 10982 ;;		Unchanged: 0/0
 10983 ;; Data sizes:     COMMON   BANK0   BANK1   BANK3   BANK2
 10984 ;;      Params:         1       0       0       0       0
 10985 ;;      Locals:         1       0       0       0       0
 10986 ;;      Temps:          2       0       0       0       0
 10987 ;;      Totals:         4       0       0       0       0
 10988 ;;Total ram usage:        4 bytes
 10989 ;; Hardware stack levels used: 1
 10990 ;; Hardware stack levels required when called: 1
 10991 ;; This function calls:
 10992 ;;		Nothing
 10993 ;; This function is called by:
 10994 ;;		_main
 10995 ;;		_init_display_controller
 10996 ;;		_clcd_putch
 10997 ;;		_clcd_print
 10998 ;;		_clear_screen
 10999 ;;		_login
 11000 ;;		_change_passwd
 11001 ;; This function uses a non-reentrant model
 11002 ;;
 11003                           
 11004     130D                     _clcd_write:	
 11005                           ;psect for function _clcd_write
 11006                           
 11007                           
 11008                           ;incstack = 0
 11009                           ; Regs used in _clcd_write: [wreg]
 11010                           ;clcd_write@byte stored from wreg
 11011     130D  00F5               	movwf	clcd_write@byte
 11012     130E                     l3948:
 11013                           
 11014                           ;clcd.c: 4: void clcd_write(unsigned char byte, unsigned char mode);clcd.c: 5: {;clcd.c:
      +                           6:     RE2 = mode & 0x01;
 11015     130E  1872               	btfsc	clcd_write@mode,0
 11016     130F  2B11               	goto	u4051
 11017     1310  2B15               	goto	u4050
 11018     1311                     u4051:
 11019     1311  1283               	bcf	3,5	;RP0=0, select bank0
 11020     1312  1303               	bcf	3,6	;RP1=0, select bank0
 11021     1313  1509               	bsf	9,2	;volatile
 11022     1314  2B18               	goto	u4064
 11023     1315                     u4050:
 11024     1315  1283               	bcf	3,5	;RP0=0, select bank0
 11025     1316  1303               	bcf	3,6	;RP1=0, select bank0
 11026     1317  1109               	bcf	9,2	;volatile
 11027     1318                     u4064:
 11028     1318                     l3950:
 11029                           
 11030                           ;clcd.c: 7:     PORTD = byte;
 11031     1318  0875               	movf	clcd_write@byte,w
 11032     1319  0088               	movwf	8	;volatile
 11033     131A                     l3952:
 11034                           
 11035                           ;clcd.c: 9:     RE1 = 1;
 11036     131A  1489               	bsf	9,1	;volatile
 11037                           
 11038                           ;clcd.c: 10:     _delay((unsigned long)((100)*(20000000/4000000.0)));
 11039     131B  30A6               	movlw	166
 11040     131C  00F3               	movwf	??_clcd_write
 11041     131D                     u5707:
 11042     131D  0BF3               	decfsz	??_clcd_write,f
 11043     131E  2B1D               	goto	u5707
 11044     131F  0000               	nop
 11045     1320                     l3954:
 11046                           
 11047                           ;clcd.c: 11:     RE1 = 0;
 11048     1320  1283               	bcf	3,5	;RP0=0, select bank0
 11049     1321  1303               	bcf	3,6	;RP1=0, select bank0
 11050     1322  1089               	bcf	9,1	;volatile
 11051                           
 11052                           ;clcd.c: 13:     _delay((unsigned long)((4100)*(20000000/4000000.0)));
 11053     1323  301B               	movlw	27
 11054     1324  00F4               	movwf	??_clcd_write+1
 11055     1325  309E               	movlw	158
 11056     1326  00F3               	movwf	??_clcd_write
 11057     1327                     u5717:
 11058     1327  0BF3               	decfsz	??_clcd_write,f
 11059     1328  2B27               	goto	u5717
 11060     1329  0BF4               	decfsz	??_clcd_write+1,f
 11061     132A  2B27               	goto	u5717
 11062     132B  0000               	nop
 11063     132C                     l180:
 11064     132C  0008               	return
 11065     132D                     __end_of_clcd_write:
 11066                           
 11067                           	psect	text52
 11068     15C6                     __ptext52:	
 11069 ;; *************** function ___lwdiv *****************
 11070 ;; Defined at:
 11071 ;;		line 5 in file "C:\Program Files\Microchip\xc8\v3.10\pic\sources\c99\common\lwdiv.c"
 11072 ;; Parameters:    Size  Location     Type
 11073 ;;  divisor         2    6[COMMON] unsigned int 
 11074 ;;  dividend        2    8[COMMON] unsigned int 
 11075 ;; Auto vars:     Size  Location     Type
 11076 ;;  quotient        2    0[BANK0 ] unsigned int 
 11077 ;;  counter         1    2[BANK0 ] unsigned char 
 11078 ;; Return value:  Size  Location     Type
 11079 ;;                  2    6[COMMON] unsigned int 
 11080 ;; Registers used:
 11081 ;;		wreg, status,2, status,0
 11082 ;; Tracked objects:
 11083 ;;		On entry : 0/0
 11084 ;;		On exit  : 0/0
 11085 ;;		Unchanged: 0/0
 11086 ;; Data sizes:     COMMON   BANK0   BANK1   BANK3   BANK2
 11087 ;;      Params:         4       0       0       0       0
 11088 ;;      Locals:         0       3       0       0       0
 11089 ;;      Temps:          0       0       0       0       0
 11090 ;;      Totals:         4       3       0       0       0
 11091 ;;Total ram usage:        7 bytes
 11092 ;; Hardware stack levels used: 1
 11093 ;; Hardware stack levels required when called: 1
 11094 ;; This function calls:
 11095 ;;		Nothing
 11096 ;; This function is called by:
 11097 ;;		_main
 11098 ;; This function uses a non-reentrant model
 11099 ;;
 11100                           
 11101     15C6                     ___lwdiv:	
 11102                           ;psect for function ___lwdiv
 11103                           
 11104     15C6                     l3494:	
 11105                           ;incstack = 0
 11106                           ; Regs used in ___lwdiv: [wreg+status,2+status,0]
 11107                           
 11108     15C6  1283               	bcf	3,5	;RP0=0, select bank0
 11109     15C7  1303               	bcf	3,6	;RP1=0, select bank0
 11110     15C8  01A0               	clrf	___lwdiv@quotient
 11111     15C9  01A1               	clrf	___lwdiv@quotient+1
 11112     15CA                     l3496:
 11113     15CA  0876               	movf	___lwdiv@divisor,w
 11114     15CB  0477               	iorwf	___lwdiv@divisor+1,w
 11115     15CC  1903               	btfsc	3,2
 11116     15CD  2DCF               	goto	u3401
 11117     15CE  2DD0               	goto	u3400
 11118     15CF                     u3401:
 11119     15CF  2E05               	goto	l3516
 11120     15D0                     u3400:
 11121     15D0                     l3498:
 11122     15D0  3001               	movlw	1
 11123     15D1  00A2               	movwf	___lwdiv@counter
 11124     15D2  2DDC               	goto	l3504
 11125     15D3                     l3500:
 11126     15D3  3001               	movlw	1
 11127     15D4                     u3415:
 11128     15D4  1003               	clrc
 11129     15D5  0DF6               	rlf	___lwdiv@divisor,f
 11130     15D6  0DF7               	rlf	___lwdiv@divisor+1,f
 11131     15D7  3EFF               	addlw	-1
 11132     15D8  1D03               	skipz
 11133     15D9  2DD4               	goto	u3415
 11134     15DA                     l3502:
 11135     15DA  3001               	movlw	1
 11136     15DB  07A2               	addwf	___lwdiv@counter,f
 11137     15DC                     l3504:
 11138     15DC  1FF7               	btfss	___lwdiv@divisor+1,7
 11139     15DD  2DDF               	goto	u3421
 11140     15DE  2DE0               	goto	u3420
 11141     15DF                     u3421:
 11142     15DF  2DD3               	goto	l3500
 11143     15E0                     u3420:
 11144     15E0                     l3506:
 11145     15E0  3001               	movlw	1
 11146     15E1                     u3435:
 11147     15E1  1003               	clrc
 11148     15E2  0DA0               	rlf	___lwdiv@quotient,f
 11149     15E3  0DA1               	rlf	___lwdiv@quotient+1,f
 11150     15E4  3EFF               	addlw	-1
 11151     15E5  1D03               	skipz
 11152     15E6  2DE1               	goto	u3435
 11153     15E7  0877               	movf	___lwdiv@divisor+1,w
 11154     15E8  0279               	subwf	___lwdiv@dividend+1,w
 11155     15E9  1D03               	skipz
 11156     15EA  2DED               	goto	u3445
 11157     15EB  0876               	movf	___lwdiv@divisor,w
 11158     15EC  0278               	subwf	___lwdiv@dividend,w
 11159     15ED                     u3445:
 11160     15ED  1C03               	skipc
 11161     15EE  2DF0               	goto	u3441
 11162     15EF  2DF1               	goto	u3440
 11163     15F0                     u3441:
 11164     15F0  2DF8               	goto	l3512
 11165     15F1                     u3440:
 11166     15F1                     l3508:
 11167     15F1  0876               	movf	___lwdiv@divisor,w
 11168     15F2  02F8               	subwf	___lwdiv@dividend,f
 11169     15F3  0877               	movf	___lwdiv@divisor+1,w
 11170     15F4  1C03               	skipc
 11171     15F5  03F9               	decf	___lwdiv@dividend+1,f
 11172     15F6  02F9               	subwf	___lwdiv@dividend+1,f
 11173     15F7                     l3510:
 11174     15F7  1420               	bsf	___lwdiv@quotient,0
 11175     15F8                     l3512:
 11176     15F8  3001               	movlw	1
 11177     15F9                     u3455:
 11178     15F9  1003               	clrc
 11179     15FA  0CF7               	rrf	___lwdiv@divisor+1,f
 11180     15FB  0CF6               	rrf	___lwdiv@divisor,f
 11181     15FC  3EFF               	addlw	-1
 11182     15FD  1D03               	skipz
 11183     15FE  2DF9               	goto	u3455
 11184     15FF                     l3514:
 11185     15FF  3001               	movlw	1
 11186     1600  02A2               	subwf	___lwdiv@counter,f
 11187     1601  1D03               	btfss	3,2
 11188     1602  2E04               	goto	u3461
 11189     1603  2E05               	goto	u3460
 11190     1604                     u3461:
 11191     1604  2DE0               	goto	l3506
 11192     1605                     u3460:
 11193     1605                     l3516:
 11194     1605  0821               	movf	___lwdiv@quotient+1,w
 11195     1606  00F7               	movwf	?___lwdiv+1
 11196     1607  0820               	movf	___lwdiv@quotient,w
 11197     1608  00F6               	movwf	?___lwdiv
 11198     1609                     l995:
 11199     1609  0008               	return
 11200     160A                     __end_of___lwdiv:
 11201                           
 11202                           	psect	text53
 11203     0801                     __ptext53:	
 11204 ;; *************** function _isr *****************
 11205 ;; Defined at:
 11206 ;;		line 7 in file "isr.c"
 11207 ;; Parameters:    Size  Location     Type
 11208 ;;		None
 11209 ;; Auto vars:     Size  Location     Type
 11210 ;;		None
 11211 ;; Return value:  Size  Location     Type
 11212 ;;                  1    wreg      void 
 11213 ;; Registers used:
 11214 ;;		wreg, status,2, status,0
 11215 ;; Tracked objects:
 11216 ;;		On entry : 0/0
 11217 ;;		On exit  : 0/0
 11218 ;;		Unchanged: 0/0
 11219 ;; Data sizes:     COMMON   BANK0   BANK1   BANK3   BANK2
 11220 ;;      Params:         0       0       0       0       0
 11221 ;;      Locals:         0       0       0       0       0
 11222 ;;      Temps:          2       0       0       0       0
 11223 ;;      Totals:         2       0       0       0       0
 11224 ;;Total ram usage:        2 bytes
 11225 ;; Hardware stack levels used: 1
 11226 ;; This function calls:
 11227 ;;		Nothing
 11228 ;; This function is called by:
 11229 ;;		Interrupt level 1
 11230 ;; This function uses a non-reentrant model
 11231 ;;
 11232                           
 11233     0801                     _isr:	
 11234                           ;psect for function _isr
 11235                           
 11236     0801                     i1l3894:
 11237                           
 11238                           ;isr.c: 9:     static unsigned int count = 0;;isr.c: 11:     if (TMR2IF == 1)
 11239     0801  1283               	bcf	3,5	;RP0=0, select bank0
 11240     0802  1303               	bcf	3,6	;RP1=0, select bank0
 11241     0803  1C8C               	btfss	12,1	;volatile
 11242     0804  2806               	goto	u397_21
 11243     0805  2807               	goto	u397_20
 11244     0806                     u397_21:
 11245     0806  282D               	goto	i1l579
 11246     0807                     u397_20:
 11247     0807                     i1l3896:
 11248                           
 11249                           ;isr.c: 12:     {;isr.c: 14:         if (++count == 1250)
 11250     0807  3001               	movlw	1
 11251     0808  07DB               	addwf	isr@count,f
 11252     0809  1803               	skipnc
 11253     080A  0ADC               	incf	isr@count+1,f
 11254     080B  3000               	movlw	0
 11255     080C  07DC               	addwf	isr@count+1,f
 11256     080D  30E2               	movlw	226
 11257     080E  065B               	xorwf	isr@count,w
 11258     080F  3004               	movlw	4
 11259     0810  1903               	skipnz
 11260     0811  065C               	xorwf	isr@count+1,w
 11261     0812  1D03               	btfss	3,2
 11262     0813  2815               	goto	u398_21
 11263     0814  2816               	goto	u398_20
 11264     0815                     u398_21:
 11265     0815  282C               	goto	i1l3910
 11266     0816                     u398_20:
 11267     0816                     i1l3898:
 11268                           
 11269                           ;isr.c: 15:         {;isr.c: 16:             count = 0;
 11270     0816  01DB               	clrf	isr@count
 11271     0817  01DC               	clrf	isr@count+1
 11272     0818                     i1l3900:
 11273                           
 11274                           ;isr.c: 17:             if (sec > 0)
 11275     0818  086C               	movf	_sec,w
 11276     0819  1903               	btfsc	3,2
 11277     081A  281C               	goto	u399_21
 11278     081B  281D               	goto	u399_20
 11279     081C                     u399_21:
 11280     081C  2820               	goto	i1l3904
 11281     081D                     u399_20:
 11282     081D                     i1l3902:
 11283                           
 11284                           ;isr.c: 18:                 sec--;
 11285     081D  3001               	movlw	1
 11286     081E  02EC               	subwf	_sec,f
 11287     081F  282C               	goto	i1l3910
 11288     0820                     i1l3904:
 11289     0820  086C               	movf	_sec,w
 11290     0821  1D03               	btfss	3,2
 11291     0822  2824               	goto	u400_21
 11292     0823  2825               	goto	u400_20
 11293     0824                     u400_21:
 11294     0824  282C               	goto	i1l3910
 11295     0825                     u400_20:
 11296     0825                     i1l3906:
 11297     0825  086B               	movf	_return_time,w
 11298     0826  1903               	btfsc	3,2
 11299     0827  2829               	goto	u401_21
 11300     0828  282A               	goto	u401_20
 11301     0829                     u401_21:
 11302     0829  282C               	goto	i1l3910
 11303     082A                     u401_20:
 11304     082A                     i1l3908:
 11305                           
 11306                           ;isr.c: 20:                 return_time--;
 11307     082A  3001               	movlw	1
 11308     082B  02EB               	subwf	_return_time,f
 11309     082C                     i1l3910:
 11310                           
 11311                           ;isr.c: 24:         TMR2IF = 0;
 11312     082C  108C               	bcf	12,1	;volatile
 11313     082D                     i1l579:
 11314     082D  0871               	movf	??_isr+1,w
 11315     082E  008A               	movwf	10
 11316     082F  0E70               	swapf	??_isr,w
 11317     0830  0083               	movwf	3
 11318     0831  0EFE               	swapf	btemp,f
 11319     0832  0E7E               	swapf	btemp,w
 11320     0833  0009               	retfie
 11321     0834                     __end_of_isr:
 11322     0002                     ___latbits      equ	2
 11323     007E                     btemp           set	126	;btemp
 11324     007E                     btemp0          set	126
 11325     007F                     btemp1          set	127
 11326     007E                     wtemp0          set	126
 11327     007F                     wtemp0a         set	127
 11328     007F                     ttemp0a         set	127
 11329     0080                     ltemp0a         set	128
 11330                           
 11331                           	psect	intentry
 11332     0004                     __pintentry:	
 11333                           ;incstack = 0
 11334                           ; Regs used in _isr: [wreg+status,2+status,0]
 11335                           
 11336     0004                     interrupt_function:
 11337     007E                     saved_w         set	btemp
 11338     0004  00FE               	movwf	btemp
 11339     0005  0E03               	swapf	3,w
 11340     0006  00F0               	movwf	??_isr
 11341     0007  080A               	movf	10,w
 11342     0008  00F1               	movwf	??_isr+1
 11343     0009  120A  158A  2801   	ljmp	_isr
 11344                           
 11345                           	psect	config
 11346                           
 11347                           ;Config register CONFIG @ 0x2007
 11348                           ;	Oscillator Selection bits
 11349                           ;	FOSC = 0x3, unprogrammed default
 11350                           ;	Watchdog Timer Enable bit
 11351                           ;	WDTE = OFF, WDT disabled
 11352                           ;	Power-up Timer Enable bit
 11353                           ;	PWRTE = 0x1, unprogrammed default
 11354                           ;	Brown-out Reset Enable bit
 11355                           ;	BOREN = 0x1, unprogrammed default
 11356                           ;	Low-Voltage (Single-Supply) In-Circuit Serial Programming Enable bit
 11357                           ;	LVP = 0x1, unprogrammed default
 11358                           ;	Data EEPROM Memory Code Protection bit
 11359                           ;	CPD = 0x1, unprogrammed default
 11360                           ;	Flash Program Memory Write Enable bits
 11361                           ;	WRT = 0x3, unprogrammed default
 11362                           ;	In-Circuit Debugger Mode bit
 11363                           ;	DEBUG = 0x1, unprogrammed default
 11364                           ;	Flash Program Memory Code Protection bit
 11365                           ;	CP = 0x1, unprogrammed default
 11366     2007                     	org	8199
 11367     2007  3FFB               	dw	16379

Data Sizes:
    Strings     394
    Constant    0
    Data        27
    BSS         69
    Persistent  0
    Stack       0

Auto Spaces:
    Space          Size  Autos    Used
    COMMON           14     10      12
    BANK0            80     50      80
    BANK1            80      0      64
    BANK3            96      0       0
    BANK2            96      0       0

Pointer List with Targets:

    clcd_print@str	PTR const unsigned char  size(2) Largest target is 17
		 -> main@event(BANK0[3]), STR_10(CODE[9]), STR_11(CODE[10]), STR_12(CODE[13]), 
		 -> STR_13(CODE[9]), STR_14(CODE[14]), STR_15(CODE[16]), STR_16(CODE[14]), 
		 -> STR_17(CODE[16]), STR_18(CODE[9]), STR_19(CODE[5]), STR_20(CODE[15]), 
		 -> STR_21(CODE[14]), STR_22(CODE[15]), STR_23(CODE[17]), STR_24(CODE[8]), 
		 -> STR_25(CODE[10]), STR_26(CODE[13]), STR_28(CODE[16]), STR_29(CODE[8]), 
		 -> STR_30(CODE[10]), STR_32(CODE[9]), STR_33(CODE[9]), STR_34(CODE[11]), 
		 -> STR_35(CODE[3]), STR_36(CODE[3]), STR_37(CODE[3]), STR_38(CODE[17]), 
		 -> STR_39(CODE[14]), STR_40(CODE[16]), STR_41(CODE[11]), STR_42(CODE[9]), 
		 -> STR_43(CODE[13]), STR_9(CODE[15]), 

    display_dashboard@event	PTR unsigned char  size(1) Largest target is 3
		 -> main@event(BANK0[3]), 

    log_event@event	PTR unsigned char  size(1) Largest target is 3
		 -> main@event(BANK0[3]), 

    main@F1231	PTR unsigned char [6] size(2) Largest target is 3
		 -> STR_1(CODE[3]), STR_2(CODE[3]), STR_3(CODE[3]), STR_4(CODE[3]), 
		 -> STR_5(CODE[3]), STR_6(CODE[3]), 

    main@gear	PTR unsigned char [6] size(2) Largest target is 3
		 -> STR_1(CODE[3]), STR_2(CODE[3]), STR_3(CODE[3]), STR_4(CODE[3]), 
		 -> STR_5(CODE[3]), STR_6(CODE[3]), 

    menu	PTR unsigned char [5] size(2) Largest target is 14
		 -> STR_10(CODE[9]), STR_11(CODE[10]), STR_12(CODE[13]), STR_13(CODE[9]), 
		 -> STR_14(CODE[14]), 

    puts@s	PTR const unsigned char  size(2) Largest target is 22
		 -> STR_27(CODE[21]), STR_31(CODE[22]), 

    sp__strcpy	PTR unsigned char  size(1) Largest target is 3
		 -> main@event(BANK0[3]), 

    sp__strncpy	PTR unsigned char  size(1) Largest target is 11
		 -> log(BANK1[11]), 

    str_write_ext_eeprom@data	PTR unsigned char  size(2) Largest target is 11
		 -> change_passwd@new_pass(BANK1[5]), log(BANK1[11]), STR_7(CODE[5]), 

    strcpy@d	PTR unsigned char  size(1) Largest target is 3
		 -> main@event(BANK0[3]), 

    strcpy@dest	PTR unsigned char  size(1) Largest target is 3
		 -> main@event(BANK0[3]), 

    strcpy@src	PTR const unsigned char  size(2) Largest target is 3
		 -> STR_1(CODE[3]), STR_2(CODE[3]), STR_3(CODE[3]), STR_4(CODE[3]), 
		 -> STR_5(CODE[3]), STR_6(CODE[3]), STR_8(CODE[3]), 

    strncmp@l	PTR const unsigned char  size(1) Largest target is 5
		 -> change_passwd@new_pass(BANK1[5]), login@user_passwd(BANK1[4]), 

    strncmp@r	PTR const unsigned char  size(1) Largest target is 5
		 -> change_passwd@re_enter(BANK1[5]), login@stored_passwd(BANK0[4]), 

    strncpy@cp	PTR unsigned char  size(1) Largest target is 11
		 -> log(BANK1[11]), 

    strncpy@d	PTR unsigned char  size(1) Largest target is 11
		 -> log(BANK1[11]), 

    strncpy@s	PTR const unsigned char  size(1) Largest target is 7
		 -> main@event(BANK0[3]), time(BANK1[7]), 


Critical Paths under _main in COMMON

    _main->___lwdiv
    _main->_clear_log
    _main->_download_log
    _main->_str_write_ext_eeprom
    _set_time->___awdiv
    _save_time->___awdiv
    _login->___awdiv
    _log_event->___awdiv
    _log_car_event->_str_write_ext_eeprom
    _init_uart->___lldiv
    _init_i2c->___lldiv
    _init_ds1307->_read_ds1307
    _write_ds1307->_i2c_write
    _init_clcd->_init_display_controller
    _init_display_controller->_clcd_write
    _download_log->_clcd_print
    _download_log->_get_saved_log
    _puts->_putchar
    _get_saved_log->_read_external_eeprom
    _read_external_eeprom->_i2c_read
    _display_uart->_putchar
    _display_dashboard->___awdiv
    _get_time->_read_ds1307
    _read_ds1307->_i2c_read
    _clear_log->_clcd_print
    _change_passwd->_str_write_ext_eeprom
    _str_write_ext_eeprom->_write_external_eeprom
    _write_external_eeprom->_i2c_write
    _clear_screen->_clcd_write
    _clcd_putch->___awdiv
    _clcd_print->_clcd_write
    ___lwdiv->_read_adc

Critical Paths under _isr in COMMON

    None.

Critical Paths under _main in BANK0

    _main->_set_time
    _view_log->_print_log
    _print_log->_clcd_putch
    _set_time->_save_time
    _menu_screen->_clcd_putch
    _login->_clcd_putch
    _log_event->_log_car_event
    _init_config->_init_i2c
    _init_config->_init_uart
    _init_uart->___lldiv
    _init_i2c->___lldiv
    _display_dashboard->_clcd_putch
    _display_time->_clcd_putch
    _change_passwd->_clcd_putch

Critical Paths under _isr in BANK0

    None.

Critical Paths under _main in BANK1

    None.

Critical Paths under _isr in BANK1

    None.

Critical Paths under _main in BANK3

    None.

Critical Paths under _isr in BANK3

    None.

Critical Paths under _main in BANK2

    None.

Critical Paths under _isr in BANK2

    None.

Call Graph Tables:

 ---------------------------------------------------------------------------------
 (Depth) Function   	        Calls       Base Space   Used Autos Params    Refs
 ---------------------------------------------------------------------------------
 (0) _main                                                35    35      0   22431
                                             15 BANK0     35    35      0
                            ___lwdiv
                      _change_passwd
                         _clcd_print
                         _clcd_write
                          _clear_log
                       _clear_screen
                  _display_dashboard
                       _download_log
                        _init_config
                          _log_event
                              _login
                        _menu_screen
                           _read_adc
                _read_digital_keypad
                           _set_time
               _str_write_ext_eeprom
                             _strcpy
                           _view_log
 ---------------------------------------------------------------------------------
 (1) _view_log                                             2     1      1    2047
                                              3 BANK0      2     1      1
                         _clcd_print
                       _clear_screen
                      _get_saved_log
                          _print_log
 ---------------------------------------------------------------------------------
 (2) _print_log                                            1     1      0     446
                                              2 BANK0      1     1      0
                         _clcd_putch
 ---------------------------------------------------------------------------------
 (2) _strcpy                                               6     3      3      79
                                              2 COMMON     6     3      3
 ---------------------------------------------------------------------------------
 (1) _set_time                                             5     4      1    3428
                                             10 BANK0      5     4      1
                            ___awdiv
                            ___awmod
                             ___bmul
                         _clcd_print
                         _clcd_putch
                       _clear_screen
                           _get_time
                          _save_time
 ---------------------------------------------------------------------------------
 (2) _save_time                                           10     8      2    1138
                                              0 BANK0     10     8      2
                            ___awdiv
                            ___awmod
                       _write_ds1307
 ---------------------------------------------------------------------------------
 (1) _read_digital_keypad                                  2     2      0      29
                                              2 COMMON     2     2      0
 ---------------------------------------------------------------------------------
 (1) _read_adc                                             4     2      2      23
                                              2 COMMON     4     2      2
 ---------------------------------------------------------------------------------
 (1) _menu_screen                                          4     3      1    1136
                                              2 BANK0      4     3      1
                         _clcd_print
                         _clcd_putch
                       _clear_screen
 ---------------------------------------------------------------------------------
 (1) _login                                               11    10      1    2552
                                              2 BANK0     11    10      1
                            ___awdiv
                            ___awmod
                         _clcd_print
                         _clcd_putch
                         _clcd_write
                       _clear_screen
               _read_external_eeprom
                            _strncmp
 ---------------------------------------------------------------------------------
 (1) _log_event                                            4     2      2    1672
                                              1 BANK0      4     2      2
                            ___awdiv
                            ___awmod
                           _get_time
                      _log_car_event
                            _strncpy
 ---------------------------------------------------------------------------------
 (2) _strncpy                                              5     1      4     147
                                              2 COMMON     5     1      4
 ---------------------------------------------------------------------------------
 (2) _log_car_event                                        1     1      0     543
                                              0 BANK0      1     1      0
                             ___bmul
               _str_write_ext_eeprom
 ---------------------------------------------------------------------------------
 (1) _init_config                                          0     0      0    1113
                           _init_adc
                          _init_clcd
                _init_digital_keypad
                        _init_ds1307
                           _init_i2c
                        _init_timer2
                          _init_uart
 ---------------------------------------------------------------------------------
 (2) _init_uart                                            8     4      4     287
                                              6 BANK0      8     4      4
                            ___lldiv
 ---------------------------------------------------------------------------------
 (2) _init_timer2                                          0     0      0       0
 ---------------------------------------------------------------------------------
 (2) _init_i2c                                             8     4      4     287
                                              6 BANK0      8     4      4
                            ___lldiv
 ---------------------------------------------------------------------------------
 (3) ___lldiv                                             14     6      8     253
                                              2 COMMON     8     0      8
                                              0 BANK0      6     6      0
 ---------------------------------------------------------------------------------
 (2) _init_ds1307                                          1     1      0     383
                                              6 COMMON     1     1      0
                        _read_ds1307
                       _write_ds1307
 ---------------------------------------------------------------------------------
 (3) _write_ds1307                                         2     1      1     137
                                              3 COMMON     2     1      1
                          _i2c_start
                           _i2c_stop
                          _i2c_write
 ---------------------------------------------------------------------------------
 (2) _init_digital_keypad                                  0     0      0       0
 ---------------------------------------------------------------------------------
 (2) _init_clcd                                            0     0      0     156
            _init_display_controller
 ---------------------------------------------------------------------------------
 (3) _init_display_controller                              2     2      0     156
                                              6 COMMON     2     2      0
                         _clcd_write
 ---------------------------------------------------------------------------------
 (2) _init_adc                                             0     0      0       0
 ---------------------------------------------------------------------------------
 (1) _download_log                                         5     5      0    1525
                                              9 COMMON     1     1      0
                                              0 BANK0      3     3      0
                         _clcd_print
                       _display_uart
                      _get_saved_log
                               _puts
 ---------------------------------------------------------------------------------
 (2) _puts                                                 2     0      2     118
                                              3 COMMON     2     0      2
                            _putchar
 ---------------------------------------------------------------------------------
 (2) _get_saved_log                                        3     3      0     761
                                              6 COMMON     3     3      0
                             ___bmul
               _read_external_eeprom
 ---------------------------------------------------------------------------------
 (3) _read_external_eeprom                                 2     2      0     209
                                              4 COMMON     2     2      0
                           _i2c_read
                      _i2c_rep_start
                          _i2c_start
                           _i2c_stop
                          _i2c_write
 ---------------------------------------------------------------------------------
 (3) ___bmul                                               3     2      1     186
                                              2 COMMON     3     2      1
 ---------------------------------------------------------------------------------
 (2) _display_uart                                         1     1      0      94
                                              3 COMMON     1     1      0
                            _putchar
 ---------------------------------------------------------------------------------
 (3) _putchar                                              1     1      0      47
                                              2 COMMON     1     1      0
 ---------------------------------------------------------------------------------
 (1) _display_dashboard                                    4     2      2    2212
                                              2 BANK0      4     2      2
                            ___awdiv
                            ___awmod
                         _clcd_print
                         _clcd_putch
                       _display_time
 ---------------------------------------------------------------------------------
 (2) _display_time                                         0     0      0     608
                         _clcd_putch
                           _get_time
 ---------------------------------------------------------------------------------
 (3) _get_time                                             1     1      0     209
                                              6 COMMON     1     1      0
                        _read_ds1307
 ---------------------------------------------------------------------------------
 (4) _read_ds1307                                          2     2      0     209
                                              4 COMMON     2     2      0
                           _i2c_read
                      _i2c_rep_start
                          _i2c_start
                           _i2c_stop
                          _i2c_write
 ---------------------------------------------------------------------------------
 (5) _i2c_rep_start                                        0     0      0       0
                          _i2c_start
                           _i2c_stop
 ---------------------------------------------------------------------------------
 (5) _i2c_read                                             2     2      0      81
                                              2 COMMON     2     2      0
                  _i2c_wait_for_idle
 ---------------------------------------------------------------------------------
 (3) ___awmod                                              6     2      4     326
                                              2 COMMON     6     2      4
 ---------------------------------------------------------------------------------
 (3) ___awdiv                                              8     4      4     330
                                              2 COMMON     8     4      4
 ---------------------------------------------------------------------------------
 (1) _clear_log                                            4     4      0     497
                                              9 COMMON     1     1      0
                                              0 BANK0      3     3      0
                         _clcd_print
 ---------------------------------------------------------------------------------
 (1) _change_passwd                                        7     6      1    1853
                                              2 BANK0      7     6      1
                         _clcd_print
                         _clcd_putch
                         _clcd_write
                       _clear_screen
               _str_write_ext_eeprom
                            _strncmp
 ---------------------------------------------------------------------------------
 (2) _strncmp                                              6     2      4     185
                                              2 COMMON     6     2      4
 ---------------------------------------------------------------------------------
 (3) _str_write_ext_eeprom                                 3     1      2     289
                                              7 COMMON     3     1      2
              _write_external_eeprom
 ---------------------------------------------------------------------------------
 (4) _write_external_eeprom                                4     3      1     162
                                              3 COMMON     4     3      1
                          _i2c_start
                           _i2c_stop
                          _i2c_write
 ---------------------------------------------------------------------------------
 (5) _i2c_write                                            1     1      0      47
                                              2 COMMON     1     1      0
                  _i2c_wait_for_idle
 ---------------------------------------------------------------------------------
 (6) _i2c_stop                                             0     0      0       0
                  _i2c_wait_for_idle
 ---------------------------------------------------------------------------------
 (6) _i2c_start                                            0     0      0       0
                  _i2c_wait_for_idle
 ---------------------------------------------------------------------------------
 (7) _i2c_wait_for_idle                                    0     0      0       0
 ---------------------------------------------------------------------------------
 (2) _clear_screen                                         2     2      0     156
                                              6 COMMON     2     2      0
                         _clcd_write
 ---------------------------------------------------------------------------------
 (3) _clcd_putch                                           2     1      1     399
                                              0 BANK0      2     1      1
                            ___awdiv (ARG)
                            ___awmod (ARG)
                         _clcd_write
 ---------------------------------------------------------------------------------
 (2) _clcd_print                                           3     0      3     450
                                              6 COMMON     3     0      3
                         _clcd_write
 ---------------------------------------------------------------------------------
 (4) _clcd_write                                           4     3      1     156
                                              2 COMMON     4     3      1
 ---------------------------------------------------------------------------------
 (1) ___lwdiv                                              7     3      4     164
                                              6 COMMON     4     0      4
                                              0 BANK0      3     3      0
                           _read_adc (ARG)
 ---------------------------------------------------------------------------------
 Estimated maximum stack depth 7
 ---------------------------------------------------------------------------------
 (Depth) Function   	        Calls       Base Space   Used Autos Params    Refs
 ---------------------------------------------------------------------------------
 (8) _isr                                                  2     2      0       0
                                              0 COMMON     2     2      0
 ---------------------------------------------------------------------------------
 Estimated maximum stack depth 8
 ---------------------------------------------------------------------------------

 Call Graph Graphs:

 _main (ROOT)
   ___lwdiv
     _read_adc (ARG)
   _change_passwd
     _clcd_print
       _clcd_write
     _clcd_putch
       ___awdiv (ARG)
       ___awmod (ARG)
       _clcd_write (ARG)
     _clcd_write
     _clear_screen
       _clcd_write
     _str_write_ext_eeprom
       _write_external_eeprom
         _i2c_start
           _i2c_wait_for_idle
         _i2c_stop
           _i2c_wait_for_idle
         _i2c_write
           _i2c_wait_for_idle
     _strncmp
   _clcd_print
   _clcd_write
   _clear_log
     _clcd_print
   _clear_screen
   _display_dashboard
     ___awdiv
     ___awmod
     _clcd_print
     _clcd_putch
     _display_time
       _clcd_putch
       _get_time
         _read_ds1307
           _i2c_read
             _i2c_wait_for_idle
           _i2c_rep_start
             _i2c_start
             _i2c_stop
           _i2c_start
           _i2c_stop
           _i2c_write
   _download_log
     _clcd_print
     _display_uart
       _putchar
     _get_saved_log
       ___bmul
       _read_external_eeprom
         _i2c_read
         _i2c_rep_start
         _i2c_start
         _i2c_stop
         _i2c_write
     _puts
       _putchar
   _init_config
     _init_adc
     _init_clcd
       _init_display_controller
         _clcd_write
     _init_digital_keypad
     _init_ds1307
       _read_ds1307
       _write_ds1307
         _i2c_start
         _i2c_stop
         _i2c_write
     _init_i2c
       ___lldiv
     _init_timer2
     _init_uart
       ___lldiv
   _log_event
     ___awdiv
     ___awmod
     _get_time
     _log_car_event
       ___bmul
       _str_write_ext_eeprom
     _strncpy
   _login
     ___awdiv
     ___awmod
     _clcd_print
     _clcd_putch
     _clcd_write
     _clear_screen
     _read_external_eeprom
     _strncmp
   _menu_screen
     _clcd_print
     _clcd_putch
     _clear_screen
   _read_adc
   _read_digital_keypad
   _set_time
     ___awdiv
     ___awmod
     ___bmul
     _clcd_print
     _clcd_putch
     _clear_screen
     _get_time
     _save_time
       ___awdiv
       ___awmod
       _write_ds1307
   _str_write_ext_eeprom
   _strcpy
   _view_log
     _clcd_print
     _clear_screen
     _get_saved_log
     _print_log
       _clcd_putch

 _isr (ROOT)

Address spaces:
Name               Size   Autos  Total    Usage
BANK3               96      0       0      0.0%
BITBANK3            96      0       0      0.0%
BANK2               96      0       0      0.0%
BITBANK2            96      0       0      0.0%
BANK1               80      0      64     80.0%
BITBANK1            80      0       0      0.0%
BANK0               80     50      80    100.0%
BITBANK0            80      0       0      0.0%
COMMON              14     10      12     85.7%
BITCOMMON           14      0       0      0.0%
DATA                 0      0     156      0.0%
STACK                0      0       0      0.0%


Microchip Technology PIC Macro Assembler V3.10 build 20250813170317 
Symbol Table                                                                                   Sun May 10 17:14:55 2026

                              pc 0002            _write_external_eeprom 14C3                   ___bmul@product 0073  
                 clcd_print@addr 0078                               l57 15C5                               l93 01B7  
                             l95 01BC                               l96 01C1                               l97 01C4  
                             l89 017E                               _GO 00FA                               l98 01C9  
                   ___awdiv@sign 0077                   ?_get_saved_log 0070                               fsr 0004  
            clear_log@reset_flag 0079                log_car_event@addr 0020                              l202 120B  
                            l302 1212                              l232 143A                              l208 13E4  
                            l305 128C                              l235 130C                              l411 0C82  
                            l180 132C                              l308 129A                              l421 16A3  
                            l229 1288                              l405 0F9D                              l270 1265  
                            l183 17A5                              l264 1555                              l424 0B37  
                            l273 1223                              l441 0BD3                              l522 0E63  
                            l282 1348                              l450 0AA6                              l186 1258  
                            l195 14C2                              l267 1259                              l283 134B  
                            l371 16F7                              l611 1523                              l284 134D  
                            l276 1242                              l189 12D5                              l365 09BD  
                            l621 1248                              l461 0D3E                              l382 1276  
                            l622 124C                              l279 122C                              l287 1237  
                            l447 1394                              l623 124D                              l552 14F2  
                            l368 0895                              l376 1493                              l480 04E9  
                            l561 140F                              l529 0D9E                              l393 0FFF  
                            l458 08F7                              l555 1465                              l379 17FF  
                            l492 07F2                              l741 12AD                              l629 13BA  
                            l751 0A23                              l592 07FF                              l881 174E  
                            l868 095A                              l995 1609                              _GIE 005F  
                            _RE1 0049                              _RE2 004A                              _PR2 0092  
                            _PEN 048A                              _SEN 0488                    ?_display_time 0070  
                  ?_display_uart 0070                              _log 00A7                              _sec 006C  
                            _isr 0801                   clcd_putch@addr 0020                              _pos 007A  
                            fsr0 0004                   clcd_putch@data 0021                              indf 0000  
                   ___awmod@sign 0077               view_log@reset_flag 0023                             l1181 1654  
                           l4000 12F0                             l1177 136E            ??_read_digital_keypad 0072  
                           l4010 099C                             l4002 095B                             l4100 14B2  
                           l4012 09A4                             l4004 0976                             l4020 1464  
                           l1196 158B                             l4014 09B4                             l4006 0984  
                           l4102 0834                             l4030 12A1                             l4110 1471  
                           l4016 09BC                             l4008 098C                             l4024 1244  
                           l4032 12A3                             l4120 1656                             l4040 09BE  
                           l4112 147D                             l4104 1466                             l4200 0E7C  
                           l5000 03CD                             l4034 12A5                             l4026 129C  
                           l4018 143C                             l4130 166D                             l4122 1660  
                           l4050 09EB                             l4042 09D0                             l4114 1487  
                           l4106 146A                             l4210 0E8F                             l4202 0E81  
                           l3500 15D3                             l4036 12AC                             l4028 129D  
                           l4140 168D                             l4132 166F                             l4052 09FD  
                           l4044 09D3                             l4060 0A1B                             l4116 1489  
                           l4108 1470                             l4220 0EAB                             l4212 0E95  
                           l4300 0BD7                             l5012 03CF                             l5020 03D1  
                           l3510 15F7                             l3502 15DA                             l2710 08F8  
                           l4150 0A25                             l4142 168E                             l4134 1675  
                           l4054 0A0B                             l4046 09DE                             l4070 1524  
                           l4118 1491                             l4222 0EB1                             l4230 0EC3  
                           l4214 0E97                             l4206 0E83                             l4310 0BEC  
                           l4302 0BDD                             l5030 03EC                             l5022 03D9  
                           l3512 15F8                             l3504 15DC                             l2720 0908  
                           l2712 08F9                             l4144 1698                             l4136 1679  
                           l4128 1661                             l4152 1395                             l4080 1280  
                           l4056 0A0C                             l4048 09E2                             l4072 1527  
                           l4064 14F3                             l4240 0ED8                             l4232 0EC9  
                           l4224 0EB7                             l4216 0EA0                             l4208 0E89  
                           l4320 0BFC                             l4304 0BE2                             l4160 0C86  
                           l4400 0BC4                             l5040 0403                             l5032 03F1  
                           l5024 03E4                             l3514 15FF                             l3506 15E0  
                           l4090 1266                             l2730 091A                             l2722 090D  
                           l2714 08FD                             l4146 16A2                             l4138 1683  
                           l4154 1396                             l4082 124E                             l2810 1206  
                           l4058 0A15                             l4074 1552                             l4066 14F7  
                           l4170 15C4                             l4162 158C                             l4250 0F10  
                           l4242 0EE0                             l4226 0EB9                             l4218 0EA5  
                           l4322 0C01                             l4314 0BEE                             l4306 0BE5  
                           l4402 0BCA                             l5050 0410                             l5042 0404  
                           l5034 03F5                             l5026 03E5                             l3508 15F1  
                           l3516 1605                             l4092 126D                             l4412 1370  
                           l2740 093E                             l2732 0921                             l2724 090F  
                           l2716 0902                             l4156 13A4                             l4420 0896  
                           l2812 120C                             l4084 1251                             l4076 1277  
                           l4068 1522                             l4164 15B4                             l4180 17F9  
                           l4172 17A6                             l4252 0F17                             l4260 0F27  
                           l4244 0EED                             l4340 0C4D                             l4316 0BF4  
                           l4324 0C06                             l4308 0BE7                             l4500 04F6  
                           l4148 0AAA                             l4404 0BD0                             l5044 0409  
                           l5028 03EB                             l4094 1494                             l4414 1376  
                           l2750 0956                             l2742 093F                             l2734 0923  
                           l2726 0911                             l2718 0904                             l4158 13AA  
                           l4430 08AE                             l4422 0896                             l4086 1252  
                           l4078 127E                             l2822 07F3                             l4166 15B9  
                           l4182 17FA                             l4174 17AA                             l4270 0F5D  
                           l4262 0F30                             l4254 0F25                             l4246 0F00  
                           l4238 0ECB                             l4190 0E67                             l4342 0C75  
                           l4326 0C0C                             l4334 0C14                             l4318 0BFA  
                           l4510 050D                             l4502 04FC                             l4350 0B41  
                           l5046 040D                             l5038 03FD                             l5054 0418  
                           l4096 149C                             l4600 0D4E                             l4416 137B  
                           l2744 0946                             l2736 0927                             l2728 0917  
                           l2760 1702                             l4184 16A4                             l4440 08E9  
                           l4432 08B4                             l4424 089D                             l4088 1253  
                           l4168 15C3                             l4176 17AF                             l4280 0FB7  
                           l4272 0F62                             l4264 0F3C                             l4248 0F05  
                           l4192 0E6D                             l4344 0C7F                             l4336 0C1A  
                           l4328 0C11                             l4520 0517                             l4512 050F  
                           l4504 04FF                             l4408 0BD2                             l4352 0B46  
                           l4360 0B5B                             l5048 040F                             l5056 0434  
                           l4098 14AC                             l4602 0D59                             l4418 1386  
                           l2738 0938                             l2746 094C                             l2770 1716  
                           l2762 1704                             l2754 16F8                             l4186 16AF  
                           l4434 08B6                             l4426 08A6                             l4178 17BC  
                           l4290 0FF2                             l4282 0FCD                             l4274 0F96  
                           l4266 0F47                             l4194 0E6E                             l4338 0C42  
                           l4530 0550                             l4522 051D                             l4506 0501  
                           l4450 0466                             l4442 043E                             l4370 0B75  
                           l4362 0B62                             l4354 0B4A                             l4620 0D8B  
                           l4612 0D70                             l4604 0D60                             l2748 0951  
                           l2780 1733                             l2772 171D                             l2764 1708  
                           l2756 16F9                             l4188 16B4                             l4436 08BE  
                           l4428 08A8                             l4292 0FF9                             l4284 0FDB  
                           l4268 0F52                             l4276 0FA0                             l4196 0E76  
                           l4540 05E3                             l4524 052C                             l4508 0507  
                           l4460 049D                             l4452 0470                             l4444 0444  
                           l4380 0B8C                             l4364 0B68                             l4372 0B78  
                           l4356 0B4B                             l4348 0B3B                             l4700 006F  
                           l3494 15C6                             l2870 160A                             l4630 0DA5  
                           l4622 0D8F                             l4614 0D76                             l4606 0D67  
                           l2782 173A                             l2774 171F                             l2766 170D  
                           l2758 16FD                             l4438 08CA                             l2862 1570  
                           l2854 1556                             l4294 0FFC                             l4286 0FE0  
                           l4278 0FAC                             l4198 0E7A                             l4550 0630  
                           l4542 05E7                             l4526 0537                             l4518 0511  
                           l4534 0552                             l4470 04B7                             l4462 049E  
                           l4454 0481                             l4446 0449                             l4390 0BBA  
                           l4374 0B7E                             l4382 0B8D                             l4366 0B6D  
                           l4358 0B50                             l4710 00A4                             l4702 0074  
                           l3496 15CA                             l3912 1259                             l3920 1224  
                           l2872 1618                             l2880 1625                             l4640 0DBE  
                           l4632 0DAC                             l4624 0D95                             l4616 0D7C  
                           l4608 0D6E                             l2776 1723                             l2768 1713  
                           l2784 1740                             l2864 1577                             l2856 1559  
                           l4288 0FEB                             l4296 0FFE                             l4560 06C9  
                           l4544 05EC                             l4536 0557                             l4552 0634  
                           l4528 0542                             l4480 04CB                             l4472 04BC  
                           l4464 04A2                             l4456 048B                             l4448 0455  
                           l4392 0BC0                             l4384 0B93                             l4376 0B83  
                           l4368 0B72                             l4800 01F5                             l4720 00C0  
                           l4712 00A6                             l4704 007E                             l3498 15D0  
                           l3914 125F                             l3922 1229                             l2882 162D  
                           l4650 0DD7                             l4642 0DC4                             l4634 0DB1  
                           l4626 0D9A                             l4618 0D82                             l2786 1745  
                           l2778 172D                             l2866 157B                             l2858 155F  
                           l2970 13C6                             l2962 13BC                             l4562 06CE  
                           l4554 0639                             l4546 0620                             l4570 070F  
                           l4538 05D5                             l4490 04E0                             l4482 04D0  
                           l4474 04C1                             l4466 04A4                             l4458 049C  
                           l4394 0BC2                             l4378 0B89                             l4386 0B9C  
                           l4802 01FB                             l4730 00E5                             l4722 00C4  
                           l4714 00AB                             l4706 0088                             l3916 121B  
                           l3924 122E                             l2884 1634                             l2876 161B  
                           l4660 0DF6                             l4652 0DDE                             l4644 0DC5  
                           l4636 0DB7                             l4628 0DA0                             l2788 174A  
                           l3940 133F                             l3932 1238                             l2868 157D  
                           l2956 1289                             l2972 13D1                             l2964 13C1  
                           l4580 07AA                             l4572 0715                             l4556 06B7  
                           l4548 0625                             l4492 04E2                             l4484 04D2  
                           l4476 04C3                             l4468 04AF                             l4388 0BB2  
                           l4900 02E6                             l4820 0213                             l4804 0201  
                           l4740 011D                             l4732 00EE                             l4724 00D3  
                           l4716 00B1                             l4708 009E                             l3950 1318  
                           l3918 1220                             l3926 1233                             l2886 163A  
                           l2878 161F                             l4670 0E39                             l4662 0DF9  
                           l4646 0DC7                             l4654 0DE5                             l4638 0DB9  
                           l3942 1344                             l3934 132E                             l2958 1290  
                           l2974 13D6                             l2982 13D8                             l4582 07DE  
                           l4574 0793                             l4566 0703                             l4558 06C5  
                           l4494 04E8                             l4486 04D8                             l4478 04C9  
                           l2990 134E                             l4910 0308                             l4902 02F1  
                           l4822 021E                             l4742 0123                             l4750 014C  
                           l4734 00F2                             l4726 00D9                             l4718 00B7  
                           l3952 131A                             l3928 1237                             l2888 1646  
                           l4672 0E4F                             l4664 0E00                             l4656 0DEC  
                           l4680 0E62                             l4648 0DCC                             l4592 0D42  
                           l3944 134C                             l3936 1333                             l2984 13E1  
                           l4584 07E3                             l4576 07A1                             l4488 04DA  
                           l4496 04EB                             l2992 1350                             l4920 031E  
                           l4912 030E                             l4904 02F4                             l4840 025A  
                           l4832 022E                             l4824 0222                             l4816 0204  
                           l4752 0152                             l4760 016D                             l4744 0129  
                           l4728 00DF                             l4736 0100                             l3954 1320  
                           l3962 14C4                             l3970 13E7                             l4674 0E5D  
                           l4666 0E05                             l4658 0DF2                             l4594 0D48  
                           l3938 133B                             l2986 13E3                             l4586 07EE  
                           l4578 07A5                             l4498 04F1                             l4930 032C  
                           l4922 031F                             l4914 0310                             l4906 02FA  
                           l4850 0270                             l4842 025D                             l4834 023D  
                           l4826 0227                             l4818 020E                             l4770 0192  
                           l4762 0172                             l4754 0157                             l4746 013C  
                           l4738 0106                             l4690 0055                             l3948 130E  
                           l3964 14E0                             l3972 13F7                             l4676 0E60  
                           l4668 0E18                             l4596 0D4A                             l3956 1411  
                           l3980 1757                             l4588 07F1                             l4932 032E  
                           l4924 0324                             l4916 0312                             l4908 02FC  
                           l4860 0284                             l4844 0263                             l4852 0272  
                           l4836 0243                             l4828 022B                             l4780 01B0  
                           l4772 0199                             l4764 0178                             l4756 0159  
                           l4748 0140                             l4692 0055                             l4684 003E  
                           l3966 14E4                             l3974 13FD                             l4598 0D4B  
                           l3958 1439                             l3990 177D                             l3982 175E  
                           l4950 0353                             l4934 032F                             l4926 0328  
                           l4942 033B                             l4870 02A0                             l4862 0287  
                           l4846 026C                             l4838 0249                             l4790 01E4  
                           l4774 01A0                             l4766 0182                             l4694 006A  
                           l4686 0042                             l3976 13FF                             l3968 13E6  
                           l3992 1784                             l3984 176E                             l4960 0365  
                           l4944 0343                             l4936 0334                             l4928 032A  
                           l4880 02B6                             l4872 02A5                             l4864 028D  
                           l4848 026E                             l4856 0274                             l4792 01E8  
                           l4768 0187                             l4776 01A4                             l4696 006B  
                           l4688 0043                             _ADFM 04FF                             l3994 1790  
                           l3986 1773                             l3978 174F                             l4970 038A  
                           l4962 0376                             l4946 0349                             l4938 0338  
                           l4890 02DB                             l4882 02C7                             l4866 028F  
                           l4858 0279                             l4794 01EB                             l4786 01CE  
                           l4778 01AA                             l4698 006D                             l3996 1799  
                           l3988 177A                             l4980 0395                             l4972 038C  
                           l4964 0379                             l4956 0359                             l4948 034E  
                           l4892 02DD                             l4884 02CA                             l4876 02AA  
                           l4868 029A                             l4796 01ED                             l4788 01DF  
                           ?_isr 0070                             l3998 12C4                             l4990 03B7  
                           l4982 03A0                             l4966 037F                             l4974 038E  
                           l4958 035F                             l4886 02D0                             l4894 02DF  
                           l4878 02B0                             l4798 01EF                             l4992 03BD  
                           l4984 03A3                             l4968 0388                             l4888 02D9  
                           l4994 03BF                             l4986 03A9                             l4978 0390  
                           l4898 02E1                             l4996 03C1                             l4988 03AB  
                           _ADON 00F8                             STR_1 1184                             STR_2 1187  
                           STR_3 1178                             STR_4 117B                             STR_5 117E  
                           STR_6 1181                             STR_7 116D                             STR_8 1175  
                           STR_9 109C                             _CREN 00C4                             u2300 094C  
                           u2220 08FD                             u2301 094B                             u2221 08FC  
                           u2310 0951                             u2230 0908                             u2311 0950  
                           u2231 0907                             u2240 0917                             u2400 1745  
                           u2320 16FD                             u2241 0916                             u2401 1744  
                           u2321 16FC                             u2330 1708                             u2331 1707  
                           u4020 125F                             u2500 162D                             u2260 0927  
                           u2340 1713                             u4021 125E                             u2501 162C  
                           u2261 0926                             u2341 1712                             u4030 1265  
                           u2510 1634                             u4031 1264                             u2511 1633  
                           u2255 091B                             u3400 15D0                             u2520 163A  
                           u5000 0DA5                             u2280 0938                             u2360 1723  
                           u4040 1344                             u4120 124C                             u2600 13C1  
                           u3401 15CF                             u2521 1639                             u5001 0DA4  
                           u2281 0937                             u2361 1722                             u4041 1343  
                           u4105 0991                             u4121 124B                             u2601 13C0  
                           u4050 1315                             u2530 1646                             u5010 0DB1  
                           u2370 172D                             u4130 12A1                             u4210 0A1B  
                           u2610 13D1                             u4051 1311                             u2531 1645  
                           u5011 0DB0                             u2275 0928                             u2371 172C  
                           u2355 1717                             u4115 09A9                             u4131 12A0  
                           u4211 0A1A                             u2611 13D0                             u3420 15E0  
                           u5020 0DBE                             u4140 12AC                             u4220 1505  
                           u2460 156F                             u2620 13D6                             u5100 00B1  
                           u3421 15DF                             u5021 0DBD                             u2285 0934  
                           u4141 12AB                             u4205 0A0D                             u2461 156E  
                           u2621 13D5                             u5101 00B0                             u4070 14F2  
                           u5030 0DC4                             u2390 1740                             u4150 09D0  
                           u4230 1535                             u2470 1576                             u2630 13E1  
                           u5110 00B7                             u3415 15D4                             u4071 14F1  
                           u5031 0DC3                             u2295 0940                             u2391 173F  
                           u2375 1729                             u4151 09CF                             u2471 1575  
                           u2631 13E0                             u5111 00B6                             u3440 15F1  
                           u4064 1318                             u4240 14C2                             u4080 140F  
                           u5040 0DEC                             u2480 158B                             u4400 0F00  
                           u4320 0E6D                             u2640 136E                             u5200 0152  
                           u5120 00D2                             u3441 15F0                             u4241 14C1  
                           u4081 140E                             u5041 0DEB                             u2385 1734  
                           u4225 1500                             u2481 158A                             u4401 0EFF  
                           u4321 0E6C                             u4305 0CE5                             u2641 136D  
                           u5201 0151                             u5121 00D1                             u2490 1618  
                           u5050 0DF2                             u4170 09E2                             u4250 1470  
                           u4410 0F30                             u4330 0E81                             u5210 0157  
                           u5130 00D9            ?_read_external_eeprom 0070                             u3435 15E1  
                           u2491 1617                             u5051 0DF1                             u4171 09E1  
                           u4235 1530                             u4251 146F                             u4411 0F2F  
                           u4331 0E80                             u4315 0D19                             u5211 0156  
                           u5131 00D8                             u3460 1605                             u5060 0E18  
                           u4260 1491                             u4420 0F9D                             u4340 0E89  
                           u4500 0B41                             u5300 0201                             u5220 0172  
                           u5140 00DF                             u3461 1604                             u3445 15ED  
                           u5061 0E17                             u4165 09D5                             u4261 1490  
                           u4421 0F9C                             u4341 0E88                             u4501 0B40  
                           u5301 0200                             u5221 0171                             u5141 00DE  
                           u4270 1675                             u4190 09FD                             u4350 0E8F  
                           u4430 0BDD                             u2590 1290                             u4510 0B50  
                           u5310 0243                             u5230 0178                             u5150 00E5  
                           u5070 005B                             u3455 15F9                             u4095 0979  
                           u4271 1674                             u4191 09FC                             u4351 0E8E  
                           u4431 0BDC                             u2591 128F                             u4511 0B4F  
                           u5311 0242                             u5231 0177                             u5151 00E4  
                           u4280 13BA                             u4360 0EAB                             u4440 0BEC  
                           u4600 0BC0                             u4520 0B62                             u5400 02B6  
                           u5320 0249                             u5240 017E                             u5160 0100  
                           u5080 00A4                             u4281 13B9                             u4185 09E4  
                           u4361 0EAA                             u4441 0BEB                             u4601 0BBF  
                           u4521 0B61                             u5401 02B5                             u5321 0248  
                           u5241 017D                             u5161 00FF                             u5081 00A3  
                           u4370 0EB1                             u4450 0BF4                             u4610 0BCA  
                           u4530 0B68                             u5410 02C7                             u5330 025A  
                           u5250 01AA                             u5170 0106                             u5090 00AB  
                           u4195 09F9                             u4371 0EB0                             u4451 0BF3  
                           u4611 0BC9                             u4531 0B67                             u5411 02C6  
                           u5331 0259                             u5251 01A9                             u5171 0105  
                           u5091 00AA                             _PEIE 005E                             u4380 0EC9  
                           u4460 0BFA                             u4700 04B7                             u4620 0BD0  
                           u4540 0B6D                             u5500 037F                             u5420 02D0  
                           u5340 0263                             u5260 01B0                             u5180 0123  
                           u4381 0EC8                             u4461 0BF9                             u4701 04B6  
                           u4621 0BCF                             u4541 0B6C                             u5501 037E  
                           u5421 02CF                             u5341 0262                             u5261 01AF  
                           u5181 0122                             u4630 1376                             u4390 0EED  
                           u4470 0C0C                             u4710 04BC                             u4550 0B72  
                           u5510 0388                             u5430 02D9                             u5350 026C  
                           u5270 01B6                             u5190 0129                             u4631 1375  
                           u4391 0EEC                             u4471 0C0B                             u4295 0CB1  
                           u4711 04BB                             u4551 0B71                             u5511 0387  
                           u5431 02D8                             u5351 026B                             u5271 01B5  
                           u5191 0128                             u4640 089D                             u4480 0C11  
                           u4800 04FC                             u4720 04C1                             u4560 0B7E  
                           u5520 0395                             u5440 02E6                             u5360 0279  
                           u5280 01F5                             u4641 089C                             u4481 0C10  
                           u4801 04FB                             u4721 04C0                             u4561 0B7D  
                           u5521 0394                             u5441 02E5                             u5361 0278  
                           u5281 01F4                             u4650 08BE                             u4490 0C1A  
                           u4810 0507                             u4730 04C9                             u4570 0B83  
                           u5530 03A9                             u5450 02FA                             u5370 028D  
                           u5290 01FB                             u4651 08BD                             u4395 0EE9  
                           u4491 0C19                             u4811 0506                             u4731 04C8  
                           u4571 0B82                             u5531 03A8                             u5451 02F9  
                           u5371 028C                             u5291 01FA                             _RCIE 0465  
                           u4900 06CE                             u4820 050D                             u4740 04D0  
                           u4660 0444                             u4580 0B89                             u5540 03BD  
                           u5460 030E                             u5380 02A0                             _RCEN 048B  
                           _RCIF 0065                             u4901 06CD                             u4821 050C  
                           u4741 04CF                             u4661 0443                             u4581 0B88  
                           u5541 03BC                             u5461 030D                             u5381 029F  
                           u4910 0715                             u4830 0517                             u4750 04D8  
                           u4590 0BBA                             u5550 03EB                             u5470 035F  
                           u5390 02B0                             u5607 1753                             u4911 0714  
                           u4831 0516                             u4751 04D7                             u4591 0BB9  
                           u5551 03EA                             u5471 035E                             u5391 02AF  
                           u4920 07A1                             u4840 051D                             u4760 04E0  
                           u5560 0403                             u5480 0365                             u5617 1762  
                           u4921 07A0                             u4841 051C                             u4761 04DF  
                           u5561 0402                             u5481 0364                             u4930 07AA  
                           u4850 0557                             u4770 04E8                             u5490 0376  
                           u5707 131D                             u5627 1770                             u4931 07A9  
                           u4851 0556                             u4771 04E7                             u4675 044E  
                           u5491 0375                             u4940 0D48                             u4860 05E3  
                           u4780 04F1                             u5717 1327                             u4941 0D47  
                           u5637 1786                             u4861 05E2                             u4781 04F0  
                           u4685 0469                             u4950 0D6E                             u4870 05EC  
                           u4790 04F6                             u4951 0D6D                             u5647 1794  
                           u4871 05EB                             u4791 04F5                             u4695 0484  
                           u4960 0D76                             u4880 0639                             u4961 0D75  
                           u5657 17A2                             u4881 0638                             u5577 054A  
                           u4970 0D7C                             u4890 06C5                             u4971 0D7B  
                           u5667 08F1                             u5587 0F1F                             u4891 06C4  
                           u4980 0D82                             u4981 0D81                             u5677 138E  
                           u5597 0FD5                             u4990 0D95                             u5687 0E57  
                           u4991 0D94                             u5697 1271                             _SPEN 00C7  
                           _TXIF 0064                             _R_nW 04A2                             _main 003E  
                           _menu 00D3                   log_event@event 0021                             _time 00B2  
                           _sw_p 006F                             btemp 007E                             _puts 1395  
          __end_of_change_passwd 0E64                   log_event@speed 0022                             start 000C  
                 menu_screen@key 0025                ___bmul@multiplier 0074                   clcd_write@byte 0075  
                 clcd_write@mode 0072                    _i2c_rep_start 1238                            ??_isr 0070  
                   ?_init_ds1307 0070                            ?_main 0070                     ?_read_ds1307 0070  
                          _ACKEN 048C                            _ACKDT 048D                   ??_display_time 007A  
                 ??_display_uart 0073                  __end_of___awdiv 095B                            STR_10 1145  
                          STR_11 1129                            STR_20 108D                            STR_12 10FD  
                          STR_21 10D5                            STR_13 113C                            STR_22 109C  
                          STR_30 111F                            STR_14 10AB                            STR_15 104D  
                          STR_23 102B                            STR_31 1000                            STR_24 1160  
                          STR_32 1133                            STR_16 10C7                            STR_40 107D  
                          STR_41 110A                            STR_33 1157                            STR_25 1115  
                          STR_17 106D                            STR_42 1093                            STR_18 114E  
                          STR_34 110A                            STR_26 10E3                            STR_35 1172  
                          STR_19 1168                            STR_43 10F0                            STR_27 1016  
                          STR_36 1172                            STR_28 105D                  __end_of___awmod 174F  
                          STR_37 1172                            STR_29 1160                            STR_38 103C  
                          STR_39 10B9                            ?_puts 0073                  __end_of___lldiv 0A24  
                    i2c_read@ack 0072                  ___awdiv@divisor 0072                  __end_of___lwdiv 160A  
                   ?_init_config 0070                            i1l579 082D                  ___awdiv@counter 0076  
                          _RCREG 001A                            _SPBRG 0099                            _PORTB 0006  
                          _PORTD 0008                            _SSPM3 00A3                            _TRISB 0086  
                          _TRISD 0088                            _SSPEN 00A5                            _TXREG 0019  
                   ?_init_timer2 0070                            _nDONE 00FA        write_external_eeprom@data 0073  
           __end_of_clear_screen 1277        write_external_eeprom@wait 0075     __end_of_str_write_ext_eeprom 1410  
                          _login 0E64                            btemp0 007E                            btemp1 007F  
                          main@i 003F                     ?_menu_screen 0022                     main@prev_key 004C  
                          pclath 000A                            puts@s 0073                  __end_of_putchar 124E  
                          status 0003                            wtemp0 007E                  __end_of_strncmp 1655  
                __end_of_strncpy 158C                 init_ds1307@dummy 0076                  __initialization 000F  
                 ?_i2c_rep_start 0070           ?_write_external_eeprom 0073                     __end_of_main 043B  
                ??_get_saved_log 0076                print_log@view_pos 0022                     __end_of_puts 13BB  
               __end_of_i2c_read 134E                 __end_of_i2c_stop 122D                    ?_download_log 0070  
                         ??_main 002F                           ??_puts 0075           ??_read_external_eeprom 0074  
                         _ADRESH 001E                           ?_login 0022                           _ADRESL 009E  
               ___awdiv@dividend 0074                     i2c_read@data 0073                           i1l3900 0818  
                         i1l3902 081D                           i1l3910 082C                           i1l3904 0820  
                         i1l3906 0825                           i1l3908 082A                           i1l3894 0801  
                         i1l3896 0807                           i1l3898 0816                           u400_20 0825  
                         u400_21 0824                           u401_20 082A                           u401_21 0829  
                   _write_ds1307 12EF                           u397_20 0807                           u397_21 0806  
                         u398_20 0816                           u398_21 0815                           u399_20 081D  
                         u399_21 081C                           _TMR2IE 0461                           _TMR2IF 0061  
                         _TMR2ON 0092                change_passwd@flag 0061                           _SSPADD 0093  
                         _TRISE1 0449                           _TRISE2 044A                           _SSPBUF 0013  
          get_saved_log@view_pos 0076      __end_of_init_digital_keypad 120C                 __end_of_get_time 09BE  
                         ___bmul 129B          _init_display_controller 174F                        ??___awdiv 0076  
                      ??___awmod 0076                        ??___lldiv 0020                        ??___lwdiv 007A  
               __end_of_init_i2c 1556                 __end_of_init_adc 1213                 __end_of_read_adc 129B  
                 ??_download_log 0020                 ___awdiv@quotient 0078                  ___awmod@divisor 0072  
                ___awmod@counter 0076                           main@gr 004A                           _strcpy 134E  
                   __pdataCOMMON 007B                           login@i 0069                           login@j 002B  
               __end_of_set_time 07F3                           ltemp0a 0080                           saved_w 007E  
               __end_of_view_log 0BD4                           ttemp0a 007F                        ??_putchar 0072  
                         wtemp0a 007F                        ??_strncmp 0076                        ??_strncpy 0076  
        __end_of__initialization 003A             __end_of_display_time 0896             __end_of_display_uart 0AA7  
                ??_i2c_rep_start 0072              ___bmul@multiplicand 0072                   __pcstackCOMMON 0070  
                   __pidataBANK0 0800                     __pidataBANK1 12D6             _str_write_ext_eeprom 13E5  
                  __end_of_login 1000                  login@reset_flag 0022                __end_of_i2c_start 1224  
              __end_of_i2c_write 1238                _i2c_wait_for_idle 1259                          ??_login 0023  
             ?_i2c_wait_for_idle 0070                       __pbssBANK0 0052                       __pbssBANK1 00A0  
                      ?_i2c_read 0070                        ?_i2c_stop 0070        ??_init_display_controller 0076  
                     _clcd_print 1494              ??_i2c_wait_for_idle 0072                       _clcd_putch 12C1  
                     _clcd_write 130D     write_external_eeprom@address 0074                       __pmaintext 003E  
                read_ds1307@addr 0074                    _log_car_event 1466                  read_ds1307@data 0075  
                   _clear_screen 1266                          ?___bmul 0072                   get_saved_log@i 0078  
          ?_str_write_ext_eeprom 0077                       __pintentry 0004                          _ACKSTAT 048E  
                        ?_strcpy 0072                          _T2CKPS0 0090                          _T2CKPS1 0091  
    __end_of_read_digital_keypad 13E5        __end_of_i2c_wait_for_idle 1266                     init_i2c@baud 0026  
                        _SSPCON2 0091                        ?_get_time 0070                       __stringtab 118A  
                     ??_i2c_read 0072                       ??_i2c_stop 0072                        ?_init_i2c 0026  
           __end_of_download_log 08F8                        ?_init_adc 0070                        ?_read_adc 0072  
              __end_of_clear_log 1395          ??_write_external_eeprom 0074                      save_time@hr 0029  
                 ?_log_car_event 0070                        ?_set_time 002A                          ___awdiv 08F8  
                        ___awmod 16F8                        ?_view_log 0023                          ___lldiv 09BE  
                        ___lwdiv 15C6                          __ptext1 0B38                          __ptext2 0AA7  
                        __ptext3 134E                          __ptext4 043B                          __ptext5 0C83  
                        __ptext6 13BB                          __ptext7 1289                          __ptext8 0BD4  
                        __ptext9 0E64                _change_passwd$431 0026  __end_of_init_display_controller 17A6  
              __end_of_init_clcd 1259                __end_of_init_uart 1524                 ___awmod@dividend 0074  
                 main@reset_flag 004F                __end_of_log_event 1800           display_dashboard@event 0022  
         display_dashboard@speed 0023                          _putchar 1243                          main@key 0051  
                        clrloop0 1214                       ??_get_time 0076                          _strncmp 160A  
                        _strncpy 1556             end_of_initialization 003A                __end_of_save_time 0D3F  
                    set_time@key 002E                      set_time@min 0065                      set_time@sec 0064  
                     ??_init_i2c 002A                       ??_init_adc 0072                       ??_read_adc 0074  
                 main@press_time 004D                       _saved_time 00A0                      ?_clcd_print 0076  
                    ?_clcd_putch 0020                  ___lldiv@divisor 0072                      ?_clcd_write 0072  
                ___lldiv@counter 0025           ??_str_write_ext_eeprom 0079                __end_of_print_log 0B38  
                     ??_set_time 002B                       ??_view_log 007A                     __pstringtext 1000  
           display_uart@view_pos 0073            __end_of_get_saved_log 16A4                          strcpy@d 0077  
                   _display_time 0834                     _display_uart 0A24                    i2c_write@data 0072  
                  clcd_print@str 0076         read_external_eeprom@data 0075                  ??_log_car_event 007A  
                     main@passwd 0049                    _change_passwd 0D3F                   __end_of___bmul 12AE  
                  __pidataCOMMON 0003                      view_log@key 0024                   __end_of_strcpy 136F  
            start_initialization 000F                        _i2c_start 121B                      __end_of_isr 0834  
                      _i2c_write 122D               set_time@blink_flag 0062                   ?_change_passwd 0022  
               change_passwd@key 0028                 change_passwd@val 005F                      putchar@data 0072  
          __end_of_i2c_rep_start 1243                         ??___bmul 0073                       init_fetch0 12AE  
                  ??_init_ds1307 0076                      __pdataBANK0 006F                      __pdataBANK1 00C7  
                  ??_read_ds1307 0074                     _download_log 0896                         ??_strcpy 0075  
                  ??_init_config 007A                    ??_init_timer2 0072                      __pbssCOMMON 007A  
                      ___latbits 0002                    __pcstackBANK0 0020                       ?_i2c_start 0070  
                     ?_i2c_write 0070                    ??_menu_screen 0023                   change_passwd@i 0060  
               ___lwdiv@dividend 0078    __end_of_write_external_eeprom 14F3                        _clear_log 136F  
                       ?___awdiv 0072                         ?___awmod 0072                _display_dashboard 16A4  
                       ?___lldiv 0072                         ?___lwdiv 0076                        _clock_reg 0058  
             ?_display_dashboard 0022                        __pstrings 118A               login@attempts_left 0068  
             set_time@reset_flag 002A              __end_of_init_ds1307 1289                get_saved_log@addr 0077  
            read_adc@adc_reg_val 0074              ??_display_dashboard 0024                 login@user_passwd 00C3  
            __end_of_read_ds1307 143B                 ___lwdiv@quotient 0020                         ?_putchar 0070  
                      _init_clcd 124E              __end_of_init_config 15C6                        _init_uart 14F3  
                       ?_strncmp 0072                         ?_strncpy 0072                        _log_count 006D  
                      _log_event 17A6                    ?_write_ds1307 0073              __end_of_init_timer2 0800  
       ?_init_display_controller 0070                  ??_change_passwd 0023                interrupt_function 0004  
    read_external_eeprom@address 0074                        clear_ram0 1213                       set_time@hr 0066  
                   ??_clcd_print 0079                     ??_clcd_putch 007A              __end_of_menu_screen 0C83  
                   ??_clcd_write 0073                        _save_time 0C83                       ?_clear_log 0070  
      __end_of_display_dashboard 16F8                        main@F1231 00C7                        main@F1224 00DD  
                      _print_log 0AA7                      __stringbase 119C                        main@i_174 0041  
                      main@event 0046                        main@speed 004B                 view_log@view_pos 0067  
                    ??_i2c_start 0072               __end_of_clcd_print 14C3                      ??_i2c_write 0072  
             __end_of_clcd_putch 12D6               __end_of_clcd_write 132D                       ?_init_clcd 0070  
                     ?_init_uart 0026                   ??_write_ds1307 0074                       ?_log_event 0021  
            _init_digital_keypad 1206                         _i2c_read 132D                         _i2c_stop 1224  
                   save_time@min 0020                     save_time@sec 0021                       ?_save_time 0020  
                  set_time@delay 005D                    set_time@field 0063     __end_of_read_external_eeprom 1466  
           ?_init_digital_keypad 0070                      _init_ds1307 1277                       ?_print_log 0070  
             __end_of__stringtab 119C                      _read_ds1307 1410                      _init_config 158C  
                    _init_timer2 07F3                  ___lwdiv@divisor 0076                  ___lwdiv@counter 0022  
                       __ptext10 17A6                         __ptext11 1556                         __ptext20 1206  
                       __ptext12 1466                         __ptext21 124E                         __ptext13 158C  
                       __ptext30 1243                         __ptext22 174F                         __ptext14 14F3  
                       __ptext31 16A4                         __ptext23 120C                         __ptext15 07F3  
                       __ptext40 0D3F                         __ptext32 0834                         __ptext24 0896  
                       __ptext16 1524                         __ptext41 160A                         __ptext33 095B  
                       __ptext25 1395                         __ptext17 09BE                         __ptext50 1494  
                       __ptext42 13E5                         __ptext34 1410                         __ptext26 1655  
                       __ptext18 1277                         __ptext51 130D                         __ptext43 14C3  
                       __ptext35 1238                         __ptext27 143B                         __ptext19 12EF  
                       __ptext52 15C6                         __ptext44 122D                         __ptext36 132D  
                       __ptext28 129B                         __ptext53 0801                         __ptext45 1224  
                       __ptext37 16F8                         __ptext29 0A24                         __ptext46 121B  
                       __ptext38 08F8                         __ptext47 1259                         __ptext39 136F  
                       __ptext48 1266                         __ptext49 12C1                         _get_time 095B  
                    _menu_screen 0BD4                       strcpy@dest 0072                         _init_i2c 1524  
                       _init_adc 120C                         _read_adc 1289          read_digital_keypad@mode 0073  
        read_digital_keypad@once 007B                         _log_flag 006E               login@stored_passwd 0026  
                       _menu_pos 006A                         _saved_ev 0055            __end_of_log_car_event 1494  
                       _saved_sp 0052                      ??_clear_log 0020                    ?_clear_screen 0070  
                       _set_time 043B                         _view_log 0B38            ??_init_digital_keypad 0072  
                       main@gear 0033                         main@menu 0045                         main@time 0044  
                       main@view 0043         str_write_ext_eeprom@addr 0079         str_write_ext_eeprom@data 0077  
                       isr@count 005B                         init_ram0 12B2                      ??_init_clcd 0078  
                    ??_init_uart 002A                         login@key 002A                      ??_log_event 0023  
                       intlevel1 0000                    init_uart@baud 0026               main@operation_flag 0050  
               ___lldiv@dividend 0076                        strcpy@src 0073                      ??_save_time 0022  
                      stringcode 1194                   ??_clear_screen 0076                        strncpy@cp 0076  
                    ??_print_log 007A             __end_of_write_ds1307 130D              _read_digital_keypad 13BB  
                  _get_saved_log 1655                 ___lldiv@quotient 0021          change_passwd@reset_flag 0022  
                       strncmp@l 0072                         strncmp@n 0074                         strncmp@r 0073  
                       stringtab 118A                         strncpy@d 0072                         strncpy@n 0074  
                       strncpy@s 0073                      _return_time 006B             ?_read_digital_keypad 0070  
               write_ds1307@addr 0074                 write_ds1307@data 0073            menu_screen@reset_flag 0022  
          change_passwd@re_enter 00B9             _read_external_eeprom 143B            change_passwd@new_pass 00BE  
              download_log@i_396 0079  
